///////////////////////////////////////////////////////////////////////////////
//                                                                            /
// IAR C/C++ Compiler V8.10.1.40194/W32 for 8051        24/Dec/2018  17:33:40 /
// Copyright 2004-2011 IAR Systems AB.                                        /
//                                                                            /
//    Core               =  plain                                             /
//    Code model         =  banked                                            /
//    Data model         =  large                                             /
//    Calling convention =  xdata reentrant                                   /
//    Constant location  =  data_rom                                          /
//    Dptr setup         =  1,16                                              /
//    Source file        =  E:\我的论文\2018-Applied                          /
//                          Sciences\SensorNetwork\ZStack-CC2530-2.5.1a\Proje /
//                          cts\zstack\Samples\GenericApp\Source\coordinator. /
//                          c                                                 /
//    Command line       =  -f "E:\我的论文\2018-Applied                      /
//                          Sciences\SensorNetwork\ZStack-CC2530-2.5.1a\Proje /
//                          cts\zstack\Samples\GenericApp\CC2530DB\..\..\..\T /
//                          ools\CC2530DB\f8wCoord.cfg" (-DCPU32MHZ           /
//                          -DROOT=__near_func -DMAC_CFG_APP_PENDING_QUEUE=TR /
//                          UE -DMAC_CFG_TX_DATA_MAX=5 -DMAC_CFG_TX_MAX=8     /
//                          -DMAC_CFG_RX_MAX=5 -DZDO_COORDINATOR -DRTR_NWK)   /
//                          -f "E:\我的论文\2018-Applied                      /
//                          Sciences\SensorNetwork\ZStack-CC2530-2.5.1a\Proje /
//                          cts\zstack\Samples\GenericApp\CC2530DB\..\..\..\T /
//                          ools\CC2530DB\f8wConfig.cfg" (-DZIGBEEPRO         /
//                          -DSECURE=0 -DZG_SECURE_DYNAMIC=0 -DREFLECTOR      /
//                          -DDEFAULT_CHANLIST=0x00000800                     /
//                          -DZDAPP_CONFIG_PAN_ID=0xFFFF                      /
//                          -DNWK_START_DELAY=100 -DEXTENDED_JOINING_RANDOM_M /
//                          ASK=0x007F -DBEACON_REQUEST_DELAY=100             /
//                          -DBEACON_REQ_DELAY_MASK=0x00FF                    /
//                          -DLINK_STATUS_JITTER_MASK=0x007F                  /
//                          -DROUTE_EXPIRY_TIME=30 -DAPSC_ACK_WAIT_DURATION_P /
//                          OLLED=3000 -DNWK_INDIRECT_MSG_TIMEOUT=7           /
//                          -DMAX_RREQ_ENTRIES=8 -DAPSC_MAX_FRAME_RETRIES=3   /
//                          -DNWK_MAX_DATA_RETRIES=2                          /
//                          -DMAX_POLL_FAILURE_RETRIES=2 -DMAX_BCAST=9        /
//                          -DAPS_MAX_GROUPS=16 -DMAX_RTG_ENTRIES=40          /
//                          -DNWK_MAX_BINDING_ENTRIES=4                       /
//                          -DMAX_BINDING_CLUSTER_IDS=4                       /
//                          "-DDEFAULT_KEY={0x01, 0x03, 0x05, 0x07, 0x09,     /
//                          0x0B, 0x0D, 0x0F, 0x00, 0x02, 0x04, 0x06, 0x08,   /
//                          0x0A, 0x0C, 0x0D}" -DMAC_MAX_FRAME_SIZE=116       /
//                          -DZDNWKMGR_MIN_TRANSMISSIONS=20 "-DCONST=const    /
//                          __code" -DGENERIC=__generic                       /
//                          -DRFD_RCVC_ALWAYS_ON=FALSE -DPOLL_RATE=1000       /
//                          -DQUEUED_POLL_RATE=100 -DRESPONSE_POLL_RATE=100)  /
//                          -DREJOIN_POLL_RATE=440 "E:\我的论文\2018-Applied  /
//                          Sciences\SensorNetwork\ZStack-CC2530-2.5.1a\Proje /
//                          cts\zstack\Samples\GenericApp\Source\coordinator. /
//                          c" -D ZTOOL_P1 -D MT_TASK -D MT_SYS_FUNC -D       /
//                          MT_ZDO_FUNC -D LCD_SUPPORTED=DEBUG -lC            /
//                          "E:\我的论文\2018-Applied                         /
//                          Sciences\SensorNetwork\ZStack-CC2530-2.5.1a\Proje /
//                          cts\zstack\Samples\GenericApp\CC2530DB\Coordinato /
//                          rEB\List\" -lA "E:\我的论文\2018-Applied          /
//                          Sciences\SensorNetwork\ZStack-CC2530-2.5.1a\Proje /
//                          cts\zstack\Samples\GenericApp\CC2530DB\Coordinato /
//                          rEB\List\" --diag_suppress Pe001,Pa010 -o         /
//                          "E:\我的论文\2018-Applied                         /
//                          Sciences\SensorNetwork\ZStack-CC2530-2.5.1a\Proje /
//                          cts\zstack\Samples\GenericApp\CC2530DB\Coordinato /
//                          rEB\Obj\" -e --no_code_motion --debug             /
//                          --core=plain --dptr=16,1 --data_model=large       /
//                          --code_model=banked --calling_convention=xdata_re /
//                          entrant --place_constants=data_rom                /
//                          --nr_virtual_regs 16 -I                           /
//                          "E:\我的论文\2018-Applied                         /
//                          Sciences\SensorNetwork\ZStack-CC2530-2.5.1a\Proje /
//                          cts\zstack\Samples\GenericApp\CC2530DB\" -I       /
//                          "E:\我的论文\2018-Applied                         /
//                          Sciences\SensorNetwork\ZStack-CC2530-2.5.1a\Proje /
//                          cts\zstack\Samples\GenericApp\CC2530DB\..\Source\ /
//                          " -I "E:\我的论文\2018-Applied                    /
//                          Sciences\SensorNetwork\ZStack-CC2530-2.5.1a\Proje /
//                          cts\zstack\Samples\GenericApp\CC2530DB\..\..\..\Z /
//                          Main\TI2530DB\" -I "E:\我的论文\2018-Applied      /
//                          Sciences\SensorNetwork\ZStack-CC2530-2.5.1a\Proje /
//                          cts\zstack\Samples\GenericApp\CC2530DB\..\..\..\. /
//                          .\..\Components\hal\include\" -I                  /
//                          "E:\我的论文\2018-Applied                         /
//                          Sciences\SensorNetwork\ZStack-CC2530-2.5.1a\Proje /
//                          cts\zstack\Samples\GenericApp\CC2530DB\..\..\..\. /
//                          .\..\Components\hal\target\CC2530EB\" -I          /
//                          "E:\我的论文\2018-Applied                         /
//                          Sciences\SensorNetwork\ZStack-CC2530-2.5.1a\Proje /
//                          cts\zstack\Samples\GenericApp\CC2530DB\..\..\..\. /
//                          .\..\Components\mac\include\" -I                  /
//                          "E:\我的论文\2018-Applied                         /
//                          Sciences\SensorNetwork\ZStack-CC2530-2.5.1a\Proje /
//                          cts\zstack\Samples\GenericApp\CC2530DB\..\..\..\. /
//                          .\..\Components\mac\high_level\" -I               /
//                          "E:\我的论文\2018-Applied                         /
//                          Sciences\SensorNetwork\ZStack-CC2530-2.5.1a\Proje /
//                          cts\zstack\Samples\GenericApp\CC2530DB\..\..\..\. /
//                          .\..\Components\mac\low_level\srf04\" -I          /
//                          "E:\我的论文\2018-Applied                         /
//                          Sciences\SensorNetwork\ZStack-CC2530-2.5.1a\Proje /
//                          cts\zstack\Samples\GenericApp\CC2530DB\..\..\..\. /
//                          .\..\Components\mac\low_level\srf04\single_chip\" /
//                           -I "E:\我的论文\2018-Applied                     /
//                          Sciences\SensorNetwork\ZStack-CC2530-2.5.1a\Proje /
//                          cts\zstack\Samples\GenericApp\CC2530DB\..\..\..\. /
//                          .\..\Components\mt\" -I                           /
//                          "E:\我的论文\2018-Applied                         /
//                          Sciences\SensorNetwork\ZStack-CC2530-2.5.1a\Proje /
//                          cts\zstack\Samples\GenericApp\CC2530DB\..\..\..\. /
//                          .\..\Components\osal\include\" -I                 /
//                          "E:\我的论文\2018-Applied                         /
//                          Sciences\SensorNetwork\ZStack-CC2530-2.5.1a\Proje /
//                          cts\zstack\Samples\GenericApp\CC2530DB\..\..\..\. /
//                          .\..\Components\services\saddr\" -I               /
//                          "E:\我的论文\2018-Applied                         /
//                          Sciences\SensorNetwork\ZStack-CC2530-2.5.1a\Proje /
//                          cts\zstack\Samples\GenericApp\CC2530DB\..\..\..\. /
//                          .\..\Components\services\sdata\" -I               /
//                          "E:\我的论文\2018-Applied                         /
//                          Sciences\SensorNetwork\ZStack-CC2530-2.5.1a\Proje /
//                          cts\zstack\Samples\GenericApp\CC2530DB\..\..\..\. /
//                          .\..\Components\stack\af\" -I                     /
//                          "E:\我的论文\2018-Applied                         /
//                          Sciences\SensorNetwork\ZStack-CC2530-2.5.1a\Proje /
//                          cts\zstack\Samples\GenericApp\CC2530DB\..\..\..\. /
//                          .\..\Components\stack\nwk\" -I                    /
//                          "E:\我的论文\2018-Applied                         /
//                          Sciences\SensorNetwork\ZStack-CC2530-2.5.1a\Proje /
//                          cts\zstack\Samples\GenericApp\CC2530DB\..\..\..\. /
//                          .\..\Components\stack\sapi\" -I                   /
//                          "E:\我的论文\2018-Applied                         /
//                          Sciences\SensorNetwork\ZStack-CC2530-2.5.1a\Proje /
//                          cts\zstack\Samples\GenericApp\CC2530DB\..\..\..\. /
//                          .\..\Components\stack\sec\" -I                    /
//                          "E:\我的论文\2018-Applied                         /
//                          Sciences\SensorNetwork\ZStack-CC2530-2.5.1a\Proje /
//                          cts\zstack\Samples\GenericApp\CC2530DB\..\..\..\. /
//                          .\..\Components\stack\sys\" -I                    /
//                          "E:\我的论文\2018-Applied                         /
//                          Sciences\SensorNetwork\ZStack-CC2530-2.5.1a\Proje /
//                          cts\zstack\Samples\GenericApp\CC2530DB\..\..\..\. /
//                          .\..\Components\stack\zdo\" -I                    /
//                          "E:\我的论文\2018-Applied                         /
//                          Sciences\SensorNetwork\ZStack-CC2530-2.5.1a\Proje /
//                          cts\zstack\Samples\GenericApp\CC2530DB\..\..\..\. /
//                          .\..\Components\zmac\" -I                         /
//                          "E:\我的论文\2018-Applied                         /
//                          Sciences\SensorNetwork\ZStack-CC2530-2.5.1a\Proje /
//                          cts\zstack\Samples\GenericApp\CC2530DB\..\..\..\. /
//                          .\..\Components\zmac\f8w\" -Ohz                   /
//                          --require_prototypes                              /
//    List file          =  E:\我的论文\2018-Applied                          /
//                          Sciences\SensorNetwork\ZStack-CC2530-2.5.1a\Proje /
//                          cts\zstack\Samples\GenericApp\CC2530DB\Coordinato /
//                          rEB\List\coordinator.s51                          /
//                                                                            /
//                                                                            /
///////////////////////////////////////////////////////////////////////////////

        NAME coordinator

        RTMODEL "__SystemLibrary", "CLib"
        RTMODEL "__calling_convention", "xdata_reentrant"
        RTMODEL "__code_model", "banked"
        RTMODEL "__core", "plain"
        RTMODEL "__data_model", "large"
        RTMODEL "__dptr_size", "16"
        RTMODEL "__extended_stack", "disabled"
        RTMODEL "__location_for_constants", "data"
        RTMODEL "__number_of_dptrs", "1"
        RTMODEL "__rt_version", "1"

        RSEG DOVERLAY:DATA:NOROOT(0)
        RSEG IOVERLAY:IDATA:NOROOT(0)
        RSEG ISTACK:IDATA:NOROOT(0)
        RSEG PSTACK:XDATA:NOROOT(0)
        RSEG XSTACK:XDATA:NOROOT(0)

        EXTERN ?ALLOC_XSTACK8
        EXTERN ?BANKED_ENTER_XDATA
        EXTERN ?BANKED_LEAVE_XDATA
        EXTERN ?BDISPATCH
        EXTERN ?DEALLOC_XSTACK8
        EXTERN ?PUSH_XSTACK_I_ONE
        EXTERN ?PUSH_XSTACK_I_THREE
        EXTERN ?PUSH_XSTACK_I_TWO
        EXTERN ?US_SWITCH_DENSE
        EXTERN ?US_SWITCH_SPARSE
        EXTERN ?V0
        EXTERN ?XSP
        EXTERN ?XSTACK_DISP0_8
        EXTERN __INIT_XDATA_Z

        PUBLIC ??GenericApp_Init?relay
        FUNCTION ??GenericApp_Init?relay,0203H
        FUNCTION ??GenericApp_MessageMSGCB?relay,0203H
        PUBLIC ??GenericApp_ProcessEvent?relay
        FUNCTION ??GenericApp_ProcessEvent?relay,0203H
        PUBLIC GenericApp_ClusterList
        PUBLIC GenericApp_DstAddr
        PUBLIC GenericApp_Init
        FUNCTION GenericApp_Init,021203H
        ARGFRAME XSTACK, 0, STACK
        LOCFRAME XSTACK, 38, STACK
        FUNCTION GenericApp_MessageMSGCB,0a1203H
        ARGFRAME XSTACK, 23, STACK
        ARGFRAME IOVERLAY, 0, STATIC
        ARGFRAME DOVERLAY, 0, STATIC
        LOCFRAME XSTACK, 19, STACK
        PUBLIC GenericApp_NwkState
        PUBLIC GenericApp_ProcessEvent
        FUNCTION GenericApp_ProcessEvent,0a1203H
        ARGFRAME XSTACK, 0, STACK
        LOCFRAME XSTACK, 32, STACK
        PUBLIC GenericApp_SimpleDesc
        PUBLIC GenericApp_TaskID
        PUBLIC GenericApp_TransID
        PUBLIC GenericApp_epDesc
        
        CFI Names cfiNames0
        CFI StackFrame CFA_SP SP IDATA
        CFI StackFrame CFA_PSP16 PSP16 XDATA
        CFI StackFrame CFA_XSP16 XSP16 XDATA
        CFI StaticOverlayFrame CFA_IOVERLAY IOVERLAY
        CFI StaticOverlayFrame CFA_DOVERLAY DOVERLAY
        CFI Resource `PSW.CY`:1, `B.BR0`:1, `B.BR1`:1, `B.BR2`:1, `B.BR3`:1
        CFI Resource `B.BR4`:1, `B.BR5`:1, `B.BR6`:1, `B.BR7`:1, `VB.BR8`:1
        CFI Resource `VB.BR9`:1, `VB.BR10`:1, `VB.BR11`:1, `VB.BR12`:1
        CFI Resource `VB.BR13`:1, `VB.BR14`:1, `VB.BR15`:1, VB:8, B:8, A:8
        CFI Resource PSW:8, DPL0:8, DPH0:8, R0:8, R1:8, R2:8, R3:8, R4:8, R5:8
        CFI Resource R6:8, R7:8, V0:8, V1:8, V2:8, V3:8, V4:8, V5:8, V6:8, V7:8
        CFI Resource V8:8, V9:8, V10:8, V11:8, V12:8, V13:8, V14:8, V15:8, SP:8
        CFI Resource PSPH:8, PSPL:8, PSP16:16, XSPH:8, XSPL:8, XSP16:16
        CFI VirtualResource ?RET:24
        CFI Resource ?BRET_EXT:8
        CFI VirtualResource ?RET_HIGH:8, ?RET_LOW:8
        CFI ResourceParts PSP16 PSPH, PSPL
        CFI ResourceParts XSP16 XSPH, XSPL
        CFI ResourceParts ?RET ?BRET_EXT, ?RET_HIGH, ?RET_LOW
        CFI EndNames cfiNames0
        
        CFI Common cfiCommon0 Using cfiNames0
        CFI CodeAlign 1
        CFI DataAlign -1
        CFI ReturnAddress ?RET CODE
        CFI CFA_DOVERLAY Used
        CFI CFA_IOVERLAY Used
        CFI CFA_SP SP+-3
        CFI CFA_PSP16 PSP16+0
        CFI CFA_XSP16 XSP16+0
        CFI `PSW.CY` SameValue
        CFI `B.BR0` SameValue
        CFI `B.BR1` SameValue
        CFI `B.BR2` SameValue
        CFI `B.BR3` SameValue
        CFI `B.BR4` SameValue
        CFI `B.BR5` SameValue
        CFI `B.BR6` SameValue
        CFI `B.BR7` SameValue
        CFI `VB.BR8` SameValue
        CFI `VB.BR9` SameValue
        CFI `VB.BR10` SameValue
        CFI `VB.BR11` SameValue
        CFI `VB.BR12` SameValue
        CFI `VB.BR13` SameValue
        CFI `VB.BR14` SameValue
        CFI `VB.BR15` SameValue
        CFI VB SameValue
        CFI B Undefined
        CFI A Undefined
        CFI PSW SameValue
        CFI DPL0 SameValue
        CFI DPH0 SameValue
        CFI R0 Undefined
        CFI R1 Undefined
        CFI R2 Undefined
        CFI R3 Undefined
        CFI R4 Undefined
        CFI R5 Undefined
        CFI R6 SameValue
        CFI R7 SameValue
        CFI V0 SameValue
        CFI V1 SameValue
        CFI V2 SameValue
        CFI V3 SameValue
        CFI V4 SameValue
        CFI V5 SameValue
        CFI V6 SameValue
        CFI V7 SameValue
        CFI V8 SameValue
        CFI V9 SameValue
        CFI V10 SameValue
        CFI V11 SameValue
        CFI V12 SameValue
        CFI V13 SameValue
        CFI V14 SameValue
        CFI V15 SameValue
        CFI PSPH Undefined
        CFI PSPL Undefined
        CFI XSPH Undefined
        CFI XSPL Undefined
        CFI ?RET Concat
        CFI ?BRET_EXT Frame(CFA_SP, 3)
        CFI ?RET_HIGH Frame(CFA_SP, 2)
        CFI ?RET_LOW Frame(CFA_SP, 1)
        CFI EndCommon cfiCommon0
        
        
        CFI Common cfiCommon1 Using cfiNames0
        CFI CodeAlign 1
        CFI DataAlign -1
        CFI ReturnAddress ?RET CODE
        CFI CFA_DOVERLAY Used
        CFI CFA_IOVERLAY Used
        CFI CFA_SP SP+-2
        CFI CFA_PSP16 PSP16+0
        CFI CFA_XSP16 XSP16+0
        CFI `PSW.CY` SameValue
        CFI `B.BR0` SameValue
        CFI `B.BR1` SameValue
        CFI `B.BR2` SameValue
        CFI `B.BR3` SameValue
        CFI `B.BR4` SameValue
        CFI `B.BR5` SameValue
        CFI `B.BR6` SameValue
        CFI `B.BR7` SameValue
        CFI `VB.BR8` SameValue
        CFI `VB.BR9` SameValue
        CFI `VB.BR10` SameValue
        CFI `VB.BR11` SameValue
        CFI `VB.BR12` SameValue
        CFI `VB.BR13` SameValue
        CFI `VB.BR14` SameValue
        CFI `VB.BR15` SameValue
        CFI VB SameValue
        CFI B SameValue
        CFI A SameValue
        CFI PSW SameValue
        CFI DPL0 SameValue
        CFI DPH0 SameValue
        CFI R0 SameValue
        CFI R1 SameValue
        CFI R2 SameValue
        CFI R3 SameValue
        CFI R4 SameValue
        CFI R5 SameValue
        CFI R6 SameValue
        CFI R7 SameValue
        CFI V0 SameValue
        CFI V1 SameValue
        CFI V2 SameValue
        CFI V3 SameValue
        CFI V4 SameValue
        CFI V5 SameValue
        CFI V6 SameValue
        CFI V7 SameValue
        CFI V8 SameValue
        CFI V9 SameValue
        CFI V10 SameValue
        CFI V11 SameValue
        CFI V12 SameValue
        CFI V13 SameValue
        CFI V14 SameValue
        CFI V15 SameValue
        CFI PSPH Undefined
        CFI PSPL Undefined
        CFI XSPH Undefined
        CFI XSPL Undefined
        CFI ?RET Concat
        CFI ?BRET_EXT SameValue
        CFI ?RET_HIGH Frame(CFA_SP, 2)
        CFI ?RET_LOW Frame(CFA_SP, 1)
        CFI EndCommon cfiCommon1
        
HalUARTOpen         SYMBOL "HalUARTOpen"
afRegister          SYMBOL "afRegister"
RegisterForKeys     SYMBOL "RegisterForKeys"
HalLcdWriteString   SYMBOL "HalLcdWriteString"
ZDO_RegisterForZDOMsg SYMBOL "ZDO_RegisterForZDOMsg"
osal_msg_receive    SYMBOL "osal_msg_receive"
osal_start_timerEx  SYMBOL "osal_start_timerEx"
osal_msg_deallocate SYMBOL "osal_msg_deallocate"
ZDO_ParseEPListRsp  SYMBOL "ZDO_ParseEPListRsp"
HalLedSet           SYMBOL "HalLedSet"
osal_mem_free       SYMBOL "osal_mem_free"
NLME_GetShortAddr   SYMBOL "NLME_GetShortAddr"
ZDP_EndDeviceBindReq SYMBOL "ZDP_EndDeviceBindReq"
ZDP_MatchDescReq    SYMBOL "ZDP_MatchDescReq"
osal_memcpy         SYMBOL "osal_memcpy"
HalUARTWrite        SYMBOL "HalUARTWrite"
??HalLcdWriteString?relay SYMBOL "?relay", HalLcdWriteString
??HalLedSet?relay   SYMBOL "?relay", HalLedSet
??HalUARTOpen?relay SYMBOL "?relay", HalUARTOpen
??HalUARTWrite?relay SYMBOL "?relay", HalUARTWrite
??NLME_GetShortAddr?relay SYMBOL "?relay", NLME_GetShortAddr
??RegisterForKeys?relay SYMBOL "?relay", RegisterForKeys
??ZDO_ParseEPListRsp?relay SYMBOL "?relay", ZDO_ParseEPListRsp
??ZDO_RegisterForZDOMsg?relay SYMBOL "?relay", ZDO_RegisterForZDOMsg
??ZDP_EndDeviceBindReq?relay SYMBOL "?relay", ZDP_EndDeviceBindReq
??ZDP_MatchDescReq?relay SYMBOL "?relay", ZDP_MatchDescReq
??afRegister?relay  SYMBOL "?relay", afRegister
??osal_mem_free?relay SYMBOL "?relay", osal_mem_free
??osal_memcpy?relay SYMBOL "?relay", osal_memcpy
??osal_msg_deallocate?relay SYMBOL "?relay", osal_msg_deallocate
??osal_msg_receive?relay SYMBOL "?relay", osal_msg_receive
??osal_start_timerEx?relay SYMBOL "?relay", osal_start_timerEx
GenericApp_Init     SYMBOL "GenericApp_Init"
??GenericApp_Init?relay SYMBOL "?relay", GenericApp_Init
GenericApp_ProcessEvent SYMBOL "GenericApp_ProcessEvent"
??GenericApp_ProcessEvent?relay SYMBOL "?relay", GenericApp_ProcessEvent

        EXTERN HalUARTOpen
        FUNCTION HalUARTOpen,0202H
        ARGFRAME ISTACK, 0, STACK
        ARGFRAME PSTACK, 0, STACK
        ARGFRAME XSTACK, 38, STACK
        ARGFRAME IOVERLAY, 0, STATIC
        ARGFRAME DOVERLAY, 0, STATIC
        EXTERN afRegister
        FUNCTION afRegister,0202H
        ARGFRAME ISTACK, 0, STACK
        ARGFRAME PSTACK, 0, STACK
        ARGFRAME XSTACK, 38, STACK
        ARGFRAME IOVERLAY, 0, STATIC
        ARGFRAME DOVERLAY, 0, STATIC
        EXTERN RegisterForKeys
        FUNCTION RegisterForKeys,0202H
        ARGFRAME ISTACK, 0, STACK
        ARGFRAME PSTACK, 0, STACK
        ARGFRAME XSTACK, 38, STACK
        ARGFRAME IOVERLAY, 0, STATIC
        ARGFRAME DOVERLAY, 0, STATIC
        EXTERN HalLcdWriteString
        FUNCTION HalLcdWriteString,0202H
        ARGFRAME ISTACK, 0, STACK
        ARGFRAME PSTACK, 0, STACK
        ARGFRAME XSTACK, 38, STACK
        ARGFRAME IOVERLAY, 0, STATIC
        ARGFRAME DOVERLAY, 0, STATIC
        EXTERN ZDO_RegisterForZDOMsg
        FUNCTION ZDO_RegisterForZDOMsg,0202H
        ARGFRAME ISTACK, 0, STACK
        ARGFRAME PSTACK, 0, STACK
        ARGFRAME XSTACK, 38, STACK
        ARGFRAME IOVERLAY, 0, STATIC
        ARGFRAME DOVERLAY, 0, STATIC
        EXTERN osal_msg_receive
        FUNCTION osal_msg_receive,0202H
        ARGFRAME ISTACK, 0, STACK
        ARGFRAME PSTACK, 0, STACK
        ARGFRAME XSTACK, 23, STACK
        ARGFRAME IOVERLAY, 0, STATIC
        ARGFRAME DOVERLAY, 0, STATIC
        EXTERN osal_start_timerEx
        FUNCTION osal_start_timerEx,0202H
        ARGFRAME ISTACK, 0, STACK
        ARGFRAME PSTACK, 0, STACK
        ARGFRAME XSTACK, 23, STACK
        ARGFRAME IOVERLAY, 0, STATIC
        ARGFRAME DOVERLAY, 0, STATIC
        EXTERN osal_msg_deallocate
        FUNCTION osal_msg_deallocate,0202H
        ARGFRAME ISTACK, 0, STACK
        ARGFRAME PSTACK, 0, STACK
        ARGFRAME XSTACK, 23, STACK
        ARGFRAME IOVERLAY, 0, STATIC
        ARGFRAME DOVERLAY, 0, STATIC
        EXTERN ZDO_ParseEPListRsp
        FUNCTION ZDO_ParseEPListRsp,0202H
        ARGFRAME ISTACK, 0, STACK
        ARGFRAME PSTACK, 0, STACK
        ARGFRAME XSTACK, 23, STACK
        ARGFRAME IOVERLAY, 0, STATIC
        ARGFRAME DOVERLAY, 0, STATIC
        EXTERN HalLedSet
        FUNCTION HalLedSet,0202H
        ARGFRAME ISTACK, 0, STACK
        ARGFRAME PSTACK, 0, STACK
        ARGFRAME XSTACK, 23, STACK
        ARGFRAME IOVERLAY, 0, STATIC
        ARGFRAME DOVERLAY, 0, STATIC
        EXTERN osal_mem_free
        FUNCTION osal_mem_free,0202H
        ARGFRAME ISTACK, 0, STACK
        ARGFRAME PSTACK, 0, STACK
        ARGFRAME XSTACK, 23, STACK
        ARGFRAME IOVERLAY, 0, STATIC
        ARGFRAME DOVERLAY, 0, STATIC
        EXTERN NLME_GetShortAddr
        FUNCTION NLME_GetShortAddr,0202H
        ARGFRAME ISTACK, 0, STACK
        ARGFRAME PSTACK, 0, STACK
        ARGFRAME XSTACK, 23, STACK
        ARGFRAME IOVERLAY, 0, STATIC
        ARGFRAME DOVERLAY, 0, STATIC
        EXTERN ZDP_EndDeviceBindReq
        FUNCTION ZDP_EndDeviceBindReq,0202H
        ARGFRAME ISTACK, 0, STACK
        ARGFRAME PSTACK, 0, STACK
        ARGFRAME XSTACK, 32, STACK
        ARGFRAME IOVERLAY, 0, STATIC
        ARGFRAME DOVERLAY, 0, STATIC
        EXTERN ZDP_MatchDescReq
        FUNCTION ZDP_MatchDescReq,0202H
        ARGFRAME ISTACK, 0, STACK
        ARGFRAME PSTACK, 0, STACK
        ARGFRAME XSTACK, 31, STACK
        ARGFRAME IOVERLAY, 0, STATIC
        ARGFRAME DOVERLAY, 0, STATIC
        EXTERN osal_memcpy
        FUNCTION osal_memcpy,0202H
        ARGFRAME ISTACK, 0, STACK
        ARGFRAME PSTACK, 0, STACK
        ARGFRAME XSTACK, 19, STACK
        ARGFRAME IOVERLAY, 0, STATIC
        ARGFRAME DOVERLAY, 0, STATIC
        EXTERN HalUARTWrite
        FUNCTION HalUARTWrite,0202H
        ARGFRAME ISTACK, 0, STACK
        ARGFRAME PSTACK, 0, STACK
        ARGFRAME XSTACK, 16, STACK
        ARGFRAME IOVERLAY, 0, STATIC
        ARGFRAME DOVERLAY, 0, STATIC
        EXTERN ??HalLcdWriteString?relay
        FUNCTION ??HalLcdWriteString?relay,00H
        EXTERN ??HalLedSet?relay
        FUNCTION ??HalLedSet?relay,00H
        EXTERN ??HalUARTOpen?relay
        FUNCTION ??HalUARTOpen?relay,00H
        EXTERN ??HalUARTWrite?relay
        FUNCTION ??HalUARTWrite?relay,00H
        EXTERN ??NLME_GetShortAddr?relay
        FUNCTION ??NLME_GetShortAddr?relay,00H
        EXTERN ??RegisterForKeys?relay
        FUNCTION ??RegisterForKeys?relay,00H
        EXTERN ??ZDO_ParseEPListRsp?relay
        FUNCTION ??ZDO_ParseEPListRsp?relay,00H
        EXTERN ??ZDO_RegisterForZDOMsg?relay
        FUNCTION ??ZDO_RegisterForZDOMsg?relay,00H
        EXTERN ??ZDP_EndDeviceBindReq?relay
        FUNCTION ??ZDP_EndDeviceBindReq?relay,00H
        EXTERN ??ZDP_MatchDescReq?relay
        FUNCTION ??ZDP_MatchDescReq?relay,00H
        EXTERN ??afRegister?relay
        FUNCTION ??afRegister?relay,00H
        EXTERN ??osal_mem_free?relay
        FUNCTION ??osal_mem_free?relay,00H
        EXTERN ??osal_memcpy?relay
        FUNCTION ??osal_memcpy?relay,00H
        EXTERN ??osal_msg_deallocate?relay
        FUNCTION ??osal_msg_deallocate?relay,00H
        EXTERN ??osal_msg_receive?relay
        FUNCTION ??osal_msg_receive?relay,00H
        EXTERN ??osal_start_timerEx?relay
        FUNCTION ??osal_start_timerEx?relay,00H

// E:\我的论文\2018-Applied Sciences\SensorNetwork\ZStack-CC2530-2.5.1a\Projects\zstack\Samples\GenericApp\Source\coordinator.c
//    1 /******************************************************************************
//    2   Filename:       GenericApp.c
//    3   Revised:        $Date: 2012-03-07 01:04:58 -0800 (Wed, 07 Mar 2012) $
//    4   Revision:       $Revision: 29656 $
//    5 
//    6   Description:    Generic Application (no Profile).
//    7 
//    8 
//    9   Copyright 2004-2012 Texas Instruments Incorporated. All rights reserved.
//   10 
//   11   IMPORTANT: Your use of this Software is limited to those specific rights
//   12   granted under the terms of a software license agreement between the user
//   13   who downloaded the software, his/her employer (which must be your employer)
//   14   and Texas Instruments Incorporated (the "License"). You may not use this
//   15   Software unless you agree to abide by the terms of the License. The License
//   16   limits your use, and you acknowledge, that the Software may not be modified,
//   17   copied or distributed unless embedded on a Texas Instruments microcontroller
//   18   or used solely and exclusively in conjunction with a Texas Instruments radio
//   19   frequency transceiver, which is integrated into your product. Other than for
//   20   the foregoing purpose, you may not use, reproduce, copy, prepare derivative
//   21   works of, modify, distribute, perform, display or sell this Software and/or
//   22   its documentation for any purpose.
//   23 
//   24   YOU FURTHER ACKNOWLEDGE AND AGREE THAT THE SOFTWARE AND DOCUMENTATION ARE
//   25   PROVIDED AS IS?WITHOUT WARRANTY OF ANY KIND, EITHER EXPRESS OR IMPLIED,
//   26   INCLUDING WITHOUT LIMITATION, ANY WARRANTY OF MERCHANTABILITY, TITLE,
//   27   NON-INFRINGEMENT AND FITNESS FOR A PARTICULAR PURPOSE. IN NO EVENT SHALL
//   28   TEXAS INSTRUMENTS OR ITS LICENSORS BE LIABLE OR OBLIGATED UNDER CONTRACT,
//   29   NEGLIGENCE, STRICT LIABILITY, CONTRIBUTION, BREACH OF WARRANTY, OR OTHER
//   30   LEGAL EQUITABLE THEORY ANY DIRECT OR INDIRECT DAMAGES OR EXPENSES
//   31   INCLUDING BUT NOT LIMITED TO ANY INCIDENTAL, SPECIAL, INDIRECT, PUNITIVE
//   32   OR CONSEQUENTIAL DAMAGES, LOST PROFITS OR LOST DATA, COST OF PROCUREMENT
//   33   OF SUBSTITUTE GOODS, TECHNOLOGY, SERVICES, OR ANY CLAIMS BY THIRD PARTIES
//   34   (INCLUDING BUT NOT LIMITED TO ANY DEFENSE THEREOF), OR OTHER SIMILAR COSTS.
//   35 
//   36   Should you have any questions regarding your right to use this Software,
//   37   contact Texas Instruments Incorporated at www.TI.com.
//   38 ******************************************************************************/
//   39 
//   40 /*********************************************************************
//   41   This application isn't intended to do anything useful, it is
//   42   intended to be a simple example of an application's structure.
//   43 
//   44   This application sends "Hello World" to another "Generic"
//   45   application every 5 seconds.  The application will also
//   46   receives "Hello World" packets.
//   47 
//   48   The "Hello World" messages are sent/received as MSG type message.
//   49 
//   50   This applications doesn't have a profile, so it handles everything
//   51   directly - itself.
//   52 
//   53   Key control:
//   54     SW1:
//   55     SW2:  initiates end device binding
//   56     SW3:
//   57     SW4:  initiates a match description request
//   58 *********************************************************************/
//   59 
//   60 /*********************************************************************
//   61  * INCLUDES
//   62  */
//   63 #include "OSAL.h"
//   64 #include "AF.h"
//   65 #include "ZDApp.h"
//   66 #include "ZDObject.h"
//   67 #include "ZDProfile.h"
//   68 
//   69 #include "GenericApp.h"
//   70 #include "DebugTrace.h"
//   71 
//   72 #if !defined( WIN32 )
//   73   #include "OnBoard.h"
//   74 #endif
//   75 
//   76 /* HAL */
//   77 #include "hal_lcd.h"
//   78 #include "hal_led.h"
//   79 #include "hal_key.h"
//   80 #include "hal_uart.h"
//   81 
//   82 /* RTOS */
//   83 #if defined( IAR_ARMCM3_LM )
//   84 #include "RTOS_App.h"
//   85 #endif  
//   86 
//   87 /*********************************************************************
//   88  * MACROS
//   89  */
//   90 
//   91 /*********************************************************************
//   92  * CONSTANTS
//   93  */
//   94 
//   95 /*********************************************************************
//   96  * TYPEDEFS
//   97  */
//   98 
//   99 /*********************************************************************
//  100  * GLOBAL VARIABLES
//  101  */
//  102 // This list should be filled with Application specific Cluster IDs.

        RSEG XDATA_ROM_C:CONST:REORDER:NOROOT(0)
        DATA8
//  103 const cId_t GenericApp_ClusterList[GENERICAPP_MAX_CLUSTERS] =
GenericApp_ClusterList:
        DATA16
        DW 1
        DW 0
        DW 0
        DW 0
//  104 {
//  105   GENERICAPP_CLUSTERID
//  106 };
//  107 

        RSEG XDATA_ROM_C:CONST:REORDER:NOROOT(0)
        DATA8
//  108 const SimpleDescriptionFormat_t GenericApp_SimpleDesc =
GenericApp_SimpleDesc:
        DB 10
        DATA16
        DW 3844
        DW 1
        DATA8
        DB 0
        DB 4
        DATA16
        DW GenericApp_ClusterList
        DATA8
        DB 4
        DATA16
        DW GenericApp_ClusterList
//  109 {
//  110   GENERICAPP_ENDPOINT,              //  int Endpoint;
//  111   GENERICAPP_PROFID,                //  uint16 AppProfId[2];
//  112   GENERICAPP_DEVICEID,              //  uint16 AppDeviceId[2];
//  113   GENERICAPP_DEVICE_VERSION,        //  int   AppDevVer:4;
//  114   GENERICAPP_FLAGS,                 //  int   AppFlags:4;
//  115   GENERICAPP_MAX_CLUSTERS,          //  byte  AppNumInClusters;
//  116   (cId_t *)GenericApp_ClusterList,  //  byte *pAppInClusterList;
//  117   GENERICAPP_MAX_CLUSTERS,          //  byte  AppNumInClusters;
//  118   (cId_t *)GenericApp_ClusterList   //  byte *pAppInClusterList;
//  119 };
//  120 
//  121 // This is the Endpoint/Interface description.  It is defined here, but
//  122 // filled-in in GenericApp_Init().  Another way to go would be to fill
//  123 // in the structure here and make it a "const" (in code space).  The
//  124 // way it's defined in this sample app it is define in RAM.

        RSEG XDATA_Z:XDATA:NOROOT(0)
        DATA8
//  125 endPointDesc_t GenericApp_epDesc;
GenericApp_epDesc:
        DS 6
        REQUIRE __INIT_XDATA_Z
//  126 
//  127 /*********************************************************************
//  128  * EXTERNAL VARIABLES
//  129  */
//  130 
//  131 /*********************************************************************
//  132  * EXTERNAL FUNCTIONS
//  133  */
//  134 
//  135 /*********************************************************************
//  136  * LOCAL VARIABLES
//  137  */

        RSEG XDATA_Z:XDATA:NOROOT(0)
        DATA8
//  138 byte GenericApp_TaskID;   // Task ID for internal task/event processing
GenericApp_TaskID:
        DS 1
        REQUIRE __INIT_XDATA_Z
//  139                           // This variable will be received when
//  140                           // GenericApp_Init() is called.

        RSEG XDATA_Z:XDATA:NOROOT(0)
        DATA8
//  141 devStates_t GenericApp_NwkState;
GenericApp_NwkState:
        DS 1
        REQUIRE __INIT_XDATA_Z
//  142 
//  143 

        RSEG XDATA_Z:XDATA:NOROOT(0)
        DATA8
//  144 byte GenericApp_TransID;  // This is the unique message ID (counter)
GenericApp_TransID:
        DS 1
        REQUIRE __INIT_XDATA_Z
//  145 

        RSEG XDATA_Z:XDATA:NOROOT(0)
        DATA8
//  146 afAddrType_t GenericApp_DstAddr;
GenericApp_DstAddr:
        DS 12
        REQUIRE __INIT_XDATA_Z
//  147 
//  148 /*********************************************************************
//  149  * LOCAL FUNCTIONS
//  150  */
//  151 static void GenericApp_ProcessZDOMsgs( zdoIncomingMsg_t *inMsg );
//  152 static void GenericApp_HandleKeys( byte shift, byte keys );
//  153 static void GenericApp_MessageMSGCB( afIncomingMSGPacket_t *pckt );
//  154 static void GenericApp_SendTheMessage( void );
//  155 
//  156 #if defined( IAR_ARMCM3_LM )
//  157 static void GenericApp_ProcessRtosMessage( void );
//  158 #endif
//  159 
//  160 /*********************************************************************
//  161  * NETWORK LAYER CALLBACKS
//  162  */
//  163 
//  164 /*********************************************************************
//  165  * PUBLIC FUNCTIONS
//  166  */
//  167 
//  168 /*********************************************************************
//  169  * @fn      GenericApp_Init
//  170  *
//  171  * @brief   Initialization function for the Generic App Task.
//  172  *          This is called during initialization and should contain
//  173  *          any application specific initialization (ie. hardware
//  174  *          initialization/setup, table initialization, power up
//  175  *          notificaiton ... ).
//  176  *
//  177  * @param   task_id - the ID assigned by OSAL.  This ID should be
//  178  *                    used to send messages and set timers.
//  179  *
//  180  * @return  none
//  181  */

        RSEG BANKED_CODE:CODE:NOROOT(0)
//  182 void GenericApp_Init( uint8 task_id )
GenericApp_Init:
        CFI Block cfiBlock0 Using cfiCommon0
        CFI Function GenericApp_Init
        CODE
//  183 {
        FUNCALL GenericApp_Init, HalUARTOpen
        LOCFRAME ISTACK, 0, STACK
        LOCFRAME PSTACK, 0, STACK
        LOCFRAME XSTACK, 38, STACK
        LOCFRAME IOVERLAY, 0, STATIC
        LOCFRAME DOVERLAY, 0, STATIC
        ARGFRAME ISTACK, 0, STACK
        ARGFRAME PSTACK, 0, STACK
        ARGFRAME XSTACK, 38, STACK
        ARGFRAME IOVERLAY, 0, STATIC
        ARGFRAME DOVERLAY, 0, STATIC
        FUNCALL GenericApp_Init, afRegister
        LOCFRAME ISTACK, 0, STACK
        LOCFRAME PSTACK, 0, STACK
        LOCFRAME XSTACK, 38, STACK
        LOCFRAME IOVERLAY, 0, STATIC
        LOCFRAME DOVERLAY, 0, STATIC
        ARGFRAME ISTACK, 0, STACK
        ARGFRAME PSTACK, 0, STACK
        ARGFRAME XSTACK, 38, STACK
        ARGFRAME IOVERLAY, 0, STATIC
        ARGFRAME DOVERLAY, 0, STATIC
        FUNCALL GenericApp_Init, RegisterForKeys
        LOCFRAME ISTACK, 0, STACK
        LOCFRAME PSTACK, 0, STACK
        LOCFRAME XSTACK, 38, STACK
        LOCFRAME IOVERLAY, 0, STATIC
        LOCFRAME DOVERLAY, 0, STATIC
        ARGFRAME ISTACK, 0, STACK
        ARGFRAME PSTACK, 0, STACK
        ARGFRAME XSTACK, 38, STACK
        ARGFRAME IOVERLAY, 0, STATIC
        ARGFRAME DOVERLAY, 0, STATIC
        FUNCALL GenericApp_Init, HalLcdWriteString
        LOCFRAME ISTACK, 0, STACK
        LOCFRAME PSTACK, 0, STACK
        LOCFRAME XSTACK, 38, STACK
        LOCFRAME IOVERLAY, 0, STATIC
        LOCFRAME DOVERLAY, 0, STATIC
        ARGFRAME ISTACK, 0, STACK
        ARGFRAME PSTACK, 0, STACK
        ARGFRAME XSTACK, 38, STACK
        ARGFRAME IOVERLAY, 0, STATIC
        ARGFRAME DOVERLAY, 0, STATIC
        FUNCALL GenericApp_Init, ZDO_RegisterForZDOMsg
        LOCFRAME ISTACK, 0, STACK
        LOCFRAME PSTACK, 0, STACK
        LOCFRAME XSTACK, 38, STACK
        LOCFRAME IOVERLAY, 0, STATIC
        LOCFRAME DOVERLAY, 0, STATIC
        ARGFRAME ISTACK, 0, STACK
        ARGFRAME PSTACK, 0, STACK
        ARGFRAME XSTACK, 38, STACK
        ARGFRAME IOVERLAY, 0, STATIC
        ARGFRAME DOVERLAY, 0, STATIC
        FUNCALL GenericApp_Init, ZDO_RegisterForZDOMsg
        LOCFRAME ISTACK, 0, STACK
        LOCFRAME PSTACK, 0, STACK
        LOCFRAME XSTACK, 38, STACK
        LOCFRAME IOVERLAY, 0, STATIC
        LOCFRAME DOVERLAY, 0, STATIC
        ARGFRAME ISTACK, 0, STACK
        ARGFRAME PSTACK, 0, STACK
        ARGFRAME XSTACK, 38, STACK
        ARGFRAME IOVERLAY, 0, STATIC
        ARGFRAME DOVERLAY, 0, STATIC
        MOV     A,#-0x9
        LCALL   ?BANKED_ENTER_XDATA
        CFI DPH0 load(1, XDATA, add(CFA_XSP16, literal(-1)))
        CFI DPL0 load(1, XDATA, add(CFA_XSP16, literal(-2)))
        CFI ?BRET_EXT load(1, XDATA, add(CFA_XSP16, literal(-3)))
        CFI ?RET_HIGH load(1, XDATA, add(CFA_XSP16, literal(-4)))
        CFI ?RET_LOW load(1, XDATA, add(CFA_XSP16, literal(-5)))
        CFI R7 load(1, XDATA, add(CFA_XSP16, literal(-6)))
        CFI V0 load(1, XDATA, add(CFA_XSP16, literal(-7)))
        CFI VB load(1, XDATA, add(CFA_XSP16, literal(-8)))
        CFI R6 load(1, XDATA, add(CFA_XSP16, literal(-9)))
        CFI CFA_SP SP+0
        CFI CFA_XSP16 add(XSP16, 9)
        ; Saved register size: 9
        ; Auto size: 29
        MOV     A,#-0x1d
        LCALL   ?ALLOC_XSTACK8
        CFI CFA_XSP16 add(XSP16, 38)
        MOV     A,R1
//  184   GenericApp_TaskID = task_id;
        MOV     DPTR,#GenericApp_TaskID
        MOVX    @DPTR,A
//  185   GenericApp_NwkState = DEV_INIT;
        MOV     DPTR,#GenericApp_NwkState
        MOV     A,#0x1
        MOVX    @DPTR,A
//  186   GenericApp_TransID = 0;
        MOV     DPTR,#GenericApp_TransID
        CLR     A
        MOVX    @DPTR,A
//  187 
//  188   // Device hardware initialization can be added here or in main() (Zmain.c).
//  189   // If the hardware is application specific - add it here.
//  190   // If the hardware is other parts of the device add it in main().
//  191 
//  192   GenericApp_DstAddr.addrMode = (afAddrMode_t)AddrBroadcast;
        MOV     DPTR,#GenericApp_DstAddr + 8
        MOV     A,#0xf
        MOVX    @DPTR,A
//  193   GenericApp_DstAddr.endPoint = GENERICAPP_ENDPOINT;
        INC     DPTR
        MOV     A,#0xa
        MOVX    @DPTR,A
//  194   GenericApp_DstAddr.addr.shortAddr = 0xFFFF;
        MOV     DPTR,#GenericApp_DstAddr
        MOV     A,#-0x1
        MOVX    @DPTR,A
        INC     DPTR
        LCALL   ?Subroutine1 & 0xFFFF
//  195   
//  196     halUARTCfg_t uartConfig;//我加的，定义一个串口结构体。
//  197   uartConfig.configured = TRUE;
??CrossCallReturnLabel_4:
        MOV     A,#0x1
        MOVX    @DPTR,A
//  198   uartConfig.baudRate = HAL_UART_BR_9600;
        LCALL   ?XSTACK_DISP0_8
        CLR     A
        MOVX    @DPTR,A
//  199   uartConfig.flowControl = FALSE;
        MOV     A,#0x2
        LCALL   ?XSTACK_DISP0_8
        CLR     A
        LCALL   ?Subroutine1 & 0xFFFF
//  200   HalUARTOpen (0,&uartConfig);
??CrossCallReturnLabel_5:
        MOV     R2,DPL
        MOV     R3,DPH
        MOV     R1,A
        LCALL   ??HalUARTOpen?relay
//  201 
//  202   // Fill out the endpoint description.
//  203   GenericApp_epDesc.endPoint = GENERICAPP_ENDPOINT;
        MOV     DPTR,#GenericApp_epDesc
        MOV     A,#0xa
        MOVX    @DPTR,A
//  204   GenericApp_epDesc.task_id = &GenericApp_TaskID;
        INC     DPTR
        MOV     A,#GenericApp_TaskID & 0xff
        MOVX    @DPTR,A
        INC     DPTR
        MOV     A,#(GenericApp_TaskID >> 8) & 0xff
        MOVX    @DPTR,A
//  205   GenericApp_epDesc.simpleDesc
//  206             = (SimpleDescriptionFormat_t *)&GenericApp_SimpleDesc;
        INC     DPTR
        MOV     A,#GenericApp_SimpleDesc & 0xff
        MOVX    @DPTR,A
        INC     DPTR
        MOV     A,#(GenericApp_SimpleDesc >> 8) & 0xff
        MOVX    @DPTR,A
//  207   GenericApp_epDesc.latencyReq = noLatencyReqs;
        INC     DPTR
        CLR     A
        MOVX    @DPTR,A
//  208 
//  209   // Register the endpoint description with the AF
//  210   afRegister( &GenericApp_epDesc );
        ; Setup parameters for call to function afRegister
        MOV     R2,#GenericApp_epDesc & 0xff
        MOV     R3,#(GenericApp_epDesc >> 8) & 0xff
        LCALL   ??afRegister?relay
//  211 
//  212   // Register for all key events - This app will handle all key events
//  213   RegisterForKeys( GenericApp_TaskID );
        ; Setup parameters for call to function RegisterForKeys
        MOV     DPTR,#GenericApp_TaskID
        MOVX    A,@DPTR
        MOV     R1,A
        LCALL   ??RegisterForKeys?relay
//  214 
//  215   // Update the display
//  216 #if defined ( LCD_SUPPORTED )
//  217   HalLcdWriteString( "GenericApp", HAL_LCD_LINE_1 );
        ; Setup parameters for call to function HalLcdWriteString
        MOV     R1,#0x1
        MOV     R2,#`?<Constant "GenericApp">` & 0xff
        MOV     R3,#(`?<Constant "GenericApp">` >> 8) & 0xff
        LCALL   ??HalLcdWriteString?relay
//  218 #endif
//  219 
//  220   ZDO_RegisterForZDOMsg( GenericApp_TaskID, End_Device_Bind_rsp );
        ; Setup parameters for call to function ZDO_RegisterForZDOMsg
        MOV     R2,#0x20
        MOV     R3,#-0x80
        MOV     DPTR,#GenericApp_TaskID
        MOVX    A,@DPTR
        MOV     R1,A
        LCALL   ??ZDO_RegisterForZDOMsg?relay
//  221   ZDO_RegisterForZDOMsg( GenericApp_TaskID, Match_Desc_rsp );
        ; Setup parameters for call to function ZDO_RegisterForZDOMsg
        MOV     R2,#0x6
        MOV     R3,#-0x80
        MOV     DPTR,#GenericApp_TaskID
        MOVX    A,@DPTR
        MOV     R1,A
        LCALL   ??ZDO_RegisterForZDOMsg?relay
//  222 
//  223 #if defined( IAR_ARMCM3_LM )
//  224   // Register this task with RTOS task initiator
//  225   RTOS_RegisterApp( task_id, GENERICAPP_RTOS_MSG_EVT );
//  226 #endif
//  227 }
        MOV     A,#0x1d
        LCALL   ?DEALLOC_XSTACK8
        CFI CFA_XSP16 add(XSP16, 9)
        MOV     R7,#0x1
        LJMP    ?BANKED_LEAVE_XDATA
        CFI EndBlock cfiBlock0
//  228 
//  229 /*********************************************************************
//  230  * @fn      GenericApp_ProcessEvent
//  231  *
//  232  * @brief   Generic Application Task event processor.  This function
//  233  *          is called to process all events for the task.  Events
//  234  *          include timers, messages and any other user defined events.
//  235  *
//  236  * @param   task_id  - The OSAL assigned task ID.
//  237  * @param   events - events to process.  This is a bit map and can
//  238  *                   contain more than one event.
//  239  *
//  240  * @return  none
//  241  */

        RSEG BANKED_CODE:CODE:NOROOT(0)
//  242 uint16 GenericApp_ProcessEvent( uint8 task_id, uint16 events )
GenericApp_ProcessEvent:
        CFI Block cfiBlock1 Using cfiCommon0
        CFI Function GenericApp_ProcessEvent
        CODE
//  243 {
        FUNCALL GenericApp_ProcessEvent, osal_msg_receive
        LOCFRAME ISTACK, 0, STACK
        LOCFRAME PSTACK, 0, STACK
        LOCFRAME XSTACK, 23, STACK
        LOCFRAME IOVERLAY, 0, STATIC
        LOCFRAME DOVERLAY, 0, STATIC
        ARGFRAME ISTACK, 0, STACK
        ARGFRAME PSTACK, 0, STACK
        ARGFRAME XSTACK, 23, STACK
        ARGFRAME IOVERLAY, 0, STATIC
        ARGFRAME DOVERLAY, 0, STATIC
        FUNCALL GenericApp_ProcessEvent, osal_start_timerEx
        LOCFRAME ISTACK, 0, STACK
        LOCFRAME PSTACK, 0, STACK
        LOCFRAME XSTACK, 23, STACK
        LOCFRAME IOVERLAY, 0, STATIC
        LOCFRAME DOVERLAY, 0, STATIC
        ARGFRAME ISTACK, 0, STACK
        ARGFRAME PSTACK, 0, STACK
        ARGFRAME XSTACK, 23, STACK
        ARGFRAME IOVERLAY, 0, STATIC
        ARGFRAME DOVERLAY, 0, STATIC
        FUNCALL GenericApp_ProcessEvent, osal_msg_deallocate
        LOCFRAME ISTACK, 0, STACK
        LOCFRAME PSTACK, 0, STACK
        LOCFRAME XSTACK, 23, STACK
        LOCFRAME IOVERLAY, 0, STATIC
        LOCFRAME DOVERLAY, 0, STATIC
        ARGFRAME ISTACK, 0, STACK
        ARGFRAME PSTACK, 0, STACK
        ARGFRAME XSTACK, 23, STACK
        ARGFRAME IOVERLAY, 0, STATIC
        ARGFRAME DOVERLAY, 0, STATIC
        FUNCALL GenericApp_ProcessEvent, osal_msg_receive
        LOCFRAME ISTACK, 0, STACK
        LOCFRAME PSTACK, 0, STACK
        LOCFRAME XSTACK, 23, STACK
        LOCFRAME IOVERLAY, 0, STATIC
        LOCFRAME DOVERLAY, 0, STATIC
        ARGFRAME ISTACK, 0, STACK
        ARGFRAME PSTACK, 0, STACK
        ARGFRAME XSTACK, 23, STACK
        ARGFRAME IOVERLAY, 0, STATIC
        ARGFRAME DOVERLAY, 0, STATIC
        FUNCALL GenericApp_ProcessEvent, ZDO_ParseEPListRsp
        LOCFRAME ISTACK, 0, STACK
        LOCFRAME PSTACK, 0, STACK
        LOCFRAME XSTACK, 23, STACK
        LOCFRAME IOVERLAY, 0, STATIC
        LOCFRAME DOVERLAY, 0, STATIC
        ARGFRAME ISTACK, 0, STACK
        ARGFRAME PSTACK, 0, STACK
        ARGFRAME XSTACK, 23, STACK
        ARGFRAME IOVERLAY, 0, STATIC
        ARGFRAME DOVERLAY, 0, STATIC
        FUNCALL GenericApp_ProcessEvent, HalLedSet
        LOCFRAME ISTACK, 0, STACK
        LOCFRAME PSTACK, 0, STACK
        LOCFRAME XSTACK, 23, STACK
        LOCFRAME IOVERLAY, 0, STATIC
        LOCFRAME DOVERLAY, 0, STATIC
        ARGFRAME ISTACK, 0, STACK
        ARGFRAME PSTACK, 0, STACK
        ARGFRAME XSTACK, 23, STACK
        ARGFRAME IOVERLAY, 0, STATIC
        ARGFRAME DOVERLAY, 0, STATIC
        FUNCALL GenericApp_ProcessEvent, osal_mem_free
        LOCFRAME ISTACK, 0, STACK
        LOCFRAME PSTACK, 0, STACK
        LOCFRAME XSTACK, 23, STACK
        LOCFRAME IOVERLAY, 0, STATIC
        LOCFRAME DOVERLAY, 0, STATIC
        ARGFRAME ISTACK, 0, STACK
        ARGFRAME PSTACK, 0, STACK
        ARGFRAME XSTACK, 23, STACK
        ARGFRAME IOVERLAY, 0, STATIC
        ARGFRAME DOVERLAY, 0, STATIC
        FUNCALL GenericApp_ProcessEvent, HalLedSet
        LOCFRAME ISTACK, 0, STACK
        LOCFRAME PSTACK, 0, STACK
        LOCFRAME XSTACK, 23, STACK
        LOCFRAME IOVERLAY, 0, STATIC
        LOCFRAME DOVERLAY, 0, STATIC
        ARGFRAME ISTACK, 0, STACK
        ARGFRAME PSTACK, 0, STACK
        ARGFRAME XSTACK, 23, STACK
        ARGFRAME IOVERLAY, 0, STATIC
        ARGFRAME DOVERLAY, 0, STATIC
        FUNCALL GenericApp_ProcessEvent, HalLedSet
        LOCFRAME ISTACK, 0, STACK
        LOCFRAME PSTACK, 0, STACK
        LOCFRAME XSTACK, 23, STACK
        LOCFRAME IOVERLAY, 0, STATIC
        LOCFRAME DOVERLAY, 0, STATIC
        ARGFRAME ISTACK, 0, STACK
        ARGFRAME PSTACK, 0, STACK
        ARGFRAME XSTACK, 23, STACK
        ARGFRAME IOVERLAY, 0, STATIC
        ARGFRAME DOVERLAY, 0, STATIC
        FUNCALL GenericApp_ProcessEvent, HalLedSet
        LOCFRAME ISTACK, 0, STACK
        LOCFRAME PSTACK, 0, STACK
        LOCFRAME XSTACK, 23, STACK
        LOCFRAME IOVERLAY, 0, STATIC
        LOCFRAME DOVERLAY, 0, STATIC
        ARGFRAME ISTACK, 0, STACK
        ARGFRAME PSTACK, 0, STACK
        ARGFRAME XSTACK, 23, STACK
        ARGFRAME IOVERLAY, 0, STATIC
        ARGFRAME DOVERLAY, 0, STATIC
        FUNCALL GenericApp_ProcessEvent, NLME_GetShortAddr
        LOCFRAME ISTACK, 0, STACK
        LOCFRAME PSTACK, 0, STACK
        LOCFRAME XSTACK, 23, STACK
        LOCFRAME IOVERLAY, 0, STATIC
        LOCFRAME DOVERLAY, 0, STATIC
        ARGFRAME ISTACK, 0, STACK
        ARGFRAME PSTACK, 0, STACK
        ARGFRAME XSTACK, 23, STACK
        ARGFRAME IOVERLAY, 0, STATIC
        ARGFRAME DOVERLAY, 0, STATIC
        FUNCALL GenericApp_ProcessEvent, ZDP_EndDeviceBindReq
        LOCFRAME ISTACK, 0, STACK
        LOCFRAME PSTACK, 0, STACK
        LOCFRAME XSTACK, 32, STACK
        LOCFRAME IOVERLAY, 0, STATIC
        LOCFRAME DOVERLAY, 0, STATIC
        ARGFRAME ISTACK, 0, STACK
        ARGFRAME PSTACK, 0, STACK
        ARGFRAME XSTACK, 32, STACK
        ARGFRAME IOVERLAY, 0, STATIC
        ARGFRAME DOVERLAY, 0, STATIC
        FUNCALL GenericApp_ProcessEvent, HalLedSet
        LOCFRAME ISTACK, 0, STACK
        LOCFRAME PSTACK, 0, STACK
        LOCFRAME XSTACK, 23, STACK
        LOCFRAME IOVERLAY, 0, STATIC
        LOCFRAME DOVERLAY, 0, STATIC
        ARGFRAME ISTACK, 0, STACK
        ARGFRAME PSTACK, 0, STACK
        ARGFRAME XSTACK, 23, STACK
        ARGFRAME IOVERLAY, 0, STATIC
        ARGFRAME DOVERLAY, 0, STATIC
        FUNCALL GenericApp_ProcessEvent, ZDP_MatchDescReq
        LOCFRAME ISTACK, 0, STACK
        LOCFRAME PSTACK, 0, STACK
        LOCFRAME XSTACK, 31, STACK
        LOCFRAME IOVERLAY, 0, STATIC
        LOCFRAME DOVERLAY, 0, STATIC
        ARGFRAME ISTACK, 0, STACK
        ARGFRAME PSTACK, 0, STACK
        ARGFRAME XSTACK, 31, STACK
        ARGFRAME IOVERLAY, 0, STATIC
        ARGFRAME DOVERLAY, 0, STATIC
        FUNCALL GenericApp_ProcessEvent, GenericApp_MessageMSGCB
        LOCFRAME ISTACK, 0, STACK
        LOCFRAME PSTACK, 0, STACK
        LOCFRAME XSTACK, 23, STACK
        LOCFRAME IOVERLAY, 0, STATIC
        LOCFRAME DOVERLAY, 0, STATIC
        ARGFRAME ISTACK, 0, STACK
        ARGFRAME PSTACK, 0, STACK
        ARGFRAME XSTACK, 23, STACK
        ARGFRAME IOVERLAY, 0, STATIC
        ARGFRAME DOVERLAY, 0, STATIC
        FUNCALL GenericApp_ProcessEvent, osal_start_timerEx
        LOCFRAME ISTACK, 0, STACK
        LOCFRAME PSTACK, 0, STACK
        LOCFRAME XSTACK, 23, STACK
        LOCFRAME IOVERLAY, 0, STATIC
        LOCFRAME DOVERLAY, 0, STATIC
        ARGFRAME ISTACK, 0, STACK
        ARGFRAME PSTACK, 0, STACK
        ARGFRAME XSTACK, 23, STACK
        ARGFRAME IOVERLAY, 0, STATIC
        ARGFRAME DOVERLAY, 0, STATIC
        MOV     A,#-0xe
        LCALL   ?BANKED_ENTER_XDATA
        CFI DPH0 load(1, XDATA, add(CFA_XSP16, literal(-1)))
        CFI DPL0 load(1, XDATA, add(CFA_XSP16, literal(-2)))
        CFI ?BRET_EXT load(1, XDATA, add(CFA_XSP16, literal(-3)))
        CFI ?RET_HIGH load(1, XDATA, add(CFA_XSP16, literal(-4)))
        CFI ?RET_LOW load(1, XDATA, add(CFA_XSP16, literal(-5)))
        CFI R7 load(1, XDATA, add(CFA_XSP16, literal(-6)))
        CFI V5 load(1, XDATA, add(CFA_XSP16, literal(-7)))
        CFI V4 load(1, XDATA, add(CFA_XSP16, literal(-8)))
        CFI V3 load(1, XDATA, add(CFA_XSP16, literal(-9)))
        CFI V2 load(1, XDATA, add(CFA_XSP16, literal(-10)))
        CFI V1 load(1, XDATA, add(CFA_XSP16, literal(-11)))
        CFI V0 load(1, XDATA, add(CFA_XSP16, literal(-12)))
        CFI VB load(1, XDATA, add(CFA_XSP16, literal(-13)))
        CFI R6 load(1, XDATA, add(CFA_XSP16, literal(-14)))
        CFI CFA_SP SP+0
        CFI CFA_XSP16 add(XSP16, 14)
        ; Saved register size: 14
        ; Auto size: 9
        MOV     A,#-0x9
        LCALL   ?ALLOC_XSTACK8
        CFI CFA_XSP16 add(XSP16, 23)
        MOV     A,R2
        MOV     R6,A
        MOV     A,R3
        MOV     R7,A
//  244   afIncomingMSGPacket_t *MSGpkt;
//  245   afDataConfirm_t *afDataConfirm;
//  246 
//  247   // Data Confirmation message fields
//  248   byte sentEP;
//  249   ZStatus_t sentStatus;
//  250   byte sentTransID;       // This should match the value sent
//  251   (void)task_id;  // Intentionally unreferenced parameter
//  252 
//  253   if ( events & SYS_EVENT_MSG )
        ANL     A,#0x80
        JNZ     $+5
        LJMP    ??GenericApp_ProcessEvent_0 & 0xFFFF
//  254   {
//  255     MSGpkt = (afIncomingMSGPacket_t *)osal_msg_receive( GenericApp_TaskID );
        ; Setup parameters for call to function osal_msg_receive
        SJMP    ??GenericApp_ProcessEvent_1
//  256     while ( MSGpkt )
//  257     {
//  258       switch ( MSGpkt->hdr.event )
//  259       {
//  260         case ZDO_CB_MSG:
//  261           GenericApp_ProcessZDOMsgs( (zdoIncomingMsg_t *)MSGpkt );
//  262           break;
//  263 
//  264         case KEY_CHANGE:
//  265           GenericApp_HandleKeys( ((keyChange_t *)MSGpkt)->state, ((keyChange_t *)MSGpkt)->keys );
//  266           break;
//  267 
//  268         case AF_DATA_CONFIRM_CMD:
//  269           // This message is received as a confirmation of a data packet sent.
//  270           // The status is of ZStatus_t type [defined in ZComDef.h]
//  271           // The message fields are defined in AF.h
//  272           afDataConfirm = (afDataConfirm_t *)MSGpkt;
//  273           sentEP = afDataConfirm->endpoint;
//  274           sentStatus = afDataConfirm->hdr.status;
//  275           sentTransID = afDataConfirm->transID;
//  276           (void)sentEP;
//  277           (void)sentTransID;
//  278 
//  279           // Action taken when confirmation is received.
//  280           if ( sentStatus != ZSuccess )
//  281           {
//  282             // The data wasn't delivered -- Do something
//  283           }
//  284           break;
//  285 
//  286         case AF_INCOMING_MSG_CMD:
//  287           GenericApp_MessageMSGCB( MSGpkt );
//  288           break;
//  289 
//  290         case ZDO_STATE_CHANGE:
//  291           GenericApp_NwkState = (devStates_t)(MSGpkt->hdr.status);
??GenericApp_ProcessEvent_2:
        INC     DPTR
        MOVX    A,@DPTR
        MOV     DPTR,#GenericApp_NwkState
        MOVX    @DPTR,A
//  292           if ( (GenericApp_NwkState == DEV_ZB_COORD)
//  293               || (GenericApp_NwkState == DEV_ROUTER)
//  294               || (GenericApp_NwkState == DEV_END_DEVICE) )
        XRL     A,#0x9
        JZ      ??GenericApp_ProcessEvent_3
        MOVX    A,@DPTR
        XRL     A,#0x7
        JZ      ??GenericApp_ProcessEvent_3
        MOVX    A,@DPTR
        XRL     A,#0x6
        JNZ     ??GenericApp_ProcessEvent_4
//  295           {
//  296             // Start sending "the" message in a regular interval.
//  297             osal_start_timerEx( GenericApp_TaskID,
//  298                                 GENERICAPP_SEND_MSG_EVT,
//  299                                 GENERICAPP_SEND_MSG_TIMEOUT );
??GenericApp_ProcessEvent_3:
        ; Setup parameters for call to function osal_start_timerEx
        MOV     R4,#-0x78
        MOV     R5,#0x13
        MOV     R2,#0x1
        MOV     R3,#0x0
        MOV     DPTR,#GenericApp_TaskID
        MOVX    A,@DPTR
        MOV     R1,A
        LCALL   ??osal_start_timerEx?relay
//  300           }
//  301           break;
//  302 
//  303         default:
//  304           break;
//  305       }
//  306 
//  307       // Release the memory
//  308       osal_msg_deallocate( (uint8 *)MSGpkt );
??GenericApp_ProcessEvent_4:
        ; Setup parameters for call to function osal_msg_deallocate
        MOV     R2,?V0 + 0
        MOV     R3,?V0 + 1
        LCALL   ??osal_msg_deallocate?relay
//  309 
//  310       // Next
//  311       MSGpkt = (afIncomingMSGPacket_t *)osal_msg_receive( GenericApp_TaskID );
        ; Setup parameters for call to function osal_msg_receive
??GenericApp_ProcessEvent_1:
        MOV     DPTR,#GenericApp_TaskID
        MOVX    A,@DPTR
        MOV     R1,A
        LCALL   ??osal_msg_receive?relay
        MOV     ?V0 + 0,R2
        MOV     ?V0 + 1,R3
        MOV     A,?V0 + 0
        ORL     A,?V0 + 1
        JNZ     $+5
        LJMP    ??GenericApp_ProcessEvent_5 & 0xFFFF
        MOV     DPL,?V0 + 0
        MOV     DPH,?V0 + 1
        MOVX    A,@DPTR
        ADD     A,#-0x1a
        JNZ     $+5
        LJMP    ??GenericApp_ProcessEvent_6 & 0xFFFF
        ADD     A,#0x5a
        JNZ     $+5
        LJMP    ??GenericApp_ProcessEvent_7 & 0xFFFF
        ADD     A,#-0x11
        JZ      ??GenericApp_ProcessEvent_2
        ADD     A,#-0x2
        JNZ     ??GenericApp_ProcessEvent_4
        MOV     A,?V0 + 0
        ADD     A,#0xc
        LCALL   ?Subroutine2 & 0xFFFF
??CrossCallReturnLabel_14:
        MOV     ?V0 + 2,A
        INC     DPTR
        MOVX    A,@DPTR
        MOV     ?V0 + 3,A
        MOV     R0,#?V0 + 2
        LCALL   ?US_SWITCH_SPARSE
`?<Jumptable for GenericApp_ProcessEvent>_0`:
        DATA
        DATA16
        DATA
        DATA16
        DATA
        DATA16
        DW        0
        DATA
        DATA16
        DATA
        DATA16
        DATA
        DATA16
        DW        2
        DATA
        DATA16
        DATA
        DATA16
        DATA
        DATA16
        DW        32774
        DATA
        DATA16
        DATA
        DATA16
        DATA
        DATA16
        DW        ??GenericApp_ProcessEvent_8
        DATA
        DATA16
        DATA
        DATA16
        DATA
        DATA16
        DW        32800
        DATA
        DATA16
        DATA
        DATA16
        DATA
        DATA16
        DW        ??GenericApp_ProcessEvent_9
        DATA
        DATA16
        DATA
        DATA16
        DW        ??GenericApp_ProcessEvent_4
        CODE
??GenericApp_ProcessEvent_8:
        ; Setup parameters for call to function ZDO_ParseEPListRsp
        MOV     R2,?V0 + 0
        MOV     R3,?V0 + 1
        LCALL   ??ZDO_ParseEPListRsp?relay
        MOV     ?V0 + 2,R2
        MOV     ?V0 + 3,R3
        MOV     A,R2
        ORL     A,?V0 + 3
        JZ      ??GenericApp_ProcessEvent_4
        MOV     DPL,R2
        MOV     DPH,R3
        MOVX    A,@DPTR
        JNZ     ??GenericApp_ProcessEvent_10
        INC     DPTR
        INC     DPTR
        INC     DPTR
        MOVX    A,@DPTR
        JZ      ??GenericApp_ProcessEvent_10
        MOV     DPTR,#GenericApp_DstAddr + 8
        MOV     A,#0x2
        MOVX    @DPTR,A
        MOV     DPL,R2
        MOV     DPH,R3
        INC     DPTR
        MOVX    A,@DPTR
        MOV     R0,A
        INC     DPTR
        MOVX    A,@DPTR
        MOV     R1,A
        MOV     DPTR,#GenericApp_DstAddr
        MOV     A,R0
        MOVX    @DPTR,A
        INC     DPTR
        MOV     A,R1
        MOVX    @DPTR,A
        MOV     DPL,R2
        MOV     DPH,R3
        INC     DPTR
        INC     DPTR
        INC     DPTR
        INC     DPTR
        MOVX    A,@DPTR
        MOV     DPTR,#GenericApp_DstAddr + 9
        MOVX    @DPTR,A
        ; Setup parameters for call to function HalLedSet
        MOV     R2,#0x1
        MOV     R1,#0x8
        LCALL   ??HalLedSet?relay
??GenericApp_ProcessEvent_10:
        ; Setup parameters for call to function osal_mem_free
        MOV     R2,?V0 + 2
        MOV     R3,?V0 + 3
        LCALL   ??osal_mem_free?relay
        LJMP    ??GenericApp_ProcessEvent_4 & 0xFFFF
??GenericApp_ProcessEvent_9:
        MOV     A,?V0 + 0
        ADD     A,#0x13
        LCALL   ?Subroutine2 & 0xFFFF
??CrossCallReturnLabel_15:
        MOV     R0,A
        INC     DPTR
        MOVX    A,@DPTR
        MOV     DPH,A
        MOV     DPL,R0
        MOVX    A,@DPTR
        JNZ     ??GenericApp_ProcessEvent_11
        ; Setup parameters for call to function HalLedSet
        MOV     R2,#0x1
??GenericApp_ProcessEvent_12:
        MOV     R1,#0x8
        LCALL   ??HalLedSet?relay
        LJMP    ??GenericApp_ProcessEvent_4 & 0xFFFF
??GenericApp_ProcessEvent_11:
        ; Setup parameters for call to function HalLedSet
        MOV     R2,#0x4
        SJMP    ??GenericApp_ProcessEvent_12
??GenericApp_ProcessEvent_7:
        INC     DPTR
        INC     DPTR
        INC     DPTR
        MOVX    A,@DPTR
        MOV     ?V0 + 4,A
        MOV     DPL,?V0 + 0
        MOV     DPH,?V0 + 1
        INC     DPTR
        INC     DPTR
        MOVX    A,@DPTR
        JZ      $+5
        LJMP    ??GenericApp_ProcessEvent_4 & 0xFFFF
        MOV     A,?V0 + 4
        MOV     C,0xE0 /* A   */.1
        JNC     ??GenericApp_ProcessEvent_13
        ; Setup parameters for call to function HalLedSet
        MOV     R2,#0x0
        MOV     R1,#0x8
        LCALL   ??HalLedSet?relay
        MOV     A,#0x8
        LCALL   ?XSTACK_DISP0_8
        MOV     A,#0x2
        LCALL   ?Subroutine1 & 0xFFFF
??CrossCallReturnLabel_6:
        CLR     A
        MOVX    @DPTR,A
        INC     DPTR
        MOVX    @DPTR,A
        ; Setup parameters for call to function NLME_GetShortAddr
        LCALL   ??NLME_GetShortAddr?relay
        MOV     ?V0 + 2,R2
        MOV     ?V0 + 3,R3
        MOV     R4,?V0 + 2
        MOV     R5,?V0 + 3
        MOV     ?V0 + 2,#GenericApp_ClusterList & 0xff
        MOV     ?V0 + 3,#(GenericApp_ClusterList >> 8) & 0xff
        ; Setup parameters for call to function ZDP_EndDeviceBindReq
        MOV     ?V0 + 5,#0x0
        MOV     R0,#?V0 + 5
        LCALL   ?PUSH_XSTACK_I_ONE
        CFI CFA_XSP16 add(XSP16, 24)
        MOV     R0,#?V0 + 2
        LCALL   ?PUSH_XSTACK_I_TWO
        CFI CFA_XSP16 add(XSP16, 26)
        MOV     ?V0 + 5,#0x4
        MOV     R0,#?V0 + 5
        LCALL   ?PUSH_XSTACK_I_ONE
        CFI CFA_XSP16 add(XSP16, 27)
        MOV     R0,#?V0 + 2
        LCALL   ?PUSH_XSTACK_I_TWO
        CFI CFA_XSP16 add(XSP16, 29)
        MOV     ?V0 + 2,#0x4
        MOV     R0,#?V0 + 2
        LCALL   ?PUSH_XSTACK_I_ONE
        CFI CFA_XSP16 add(XSP16, 30)
        MOV     ?V0 + 3,#0xf
        MOV     R0,#?V0 + 2
        LCALL   ?PUSH_XSTACK_I_TWO
        CFI CFA_XSP16 add(XSP16, 32)
        MOV     DPTR,#GenericApp_epDesc
        MOVX    A,@DPTR
        MOV     R1,A
        MOV     A,#0x9
        LCALL   ?XSTACK_DISP0_8
        MOV     R2,DPL
        MOV     R3,DPH
        LCALL   ??ZDP_EndDeviceBindReq?relay
        MOV     A,#0x9
        LCALL   ?DEALLOC_XSTACK8
        CFI CFA_XSP16 add(XSP16, 23)
??GenericApp_ProcessEvent_13:
        MOV     A,?V0 + 4
        MOV     C,0xE0 /* A   */.3
        JC      $+5
        LJMP    ??GenericApp_ProcessEvent_4 & 0xFFFF
        ; Setup parameters for call to function HalLedSet
        MOV     R2,#0x0
        MOV     R1,#0x8
        LCALL   ??HalLedSet?relay
        MOV     A,#0x8
        LCALL   ?XSTACK_DISP0_8
        MOV     A,#0xf
        LCALL   ?Subroutine1 & 0xFFFF
??CrossCallReturnLabel_7:
        MOV     A,#-0x1
        MOVX    @DPTR,A
        INC     DPTR
        MOVX    @DPTR,A
        MOV     ?V0 + 2,#GenericApp_ClusterList & 0xff
        MOV     ?V0 + 3,#(GenericApp_ClusterList >> 8) & 0xff
        ; Setup parameters for call to function ZDP_MatchDescReq
        MOV     ?V0 + 4,#0x0
        MOV     R0,#?V0 + 4
        LCALL   ?PUSH_XSTACK_I_ONE
        CFI CFA_XSP16 add(XSP16, 24)
        MOV     R0,#?V0 + 2
        LCALL   ?PUSH_XSTACK_I_TWO
        CFI CFA_XSP16 add(XSP16, 26)
        MOV     ?V0 + 4,#0x4
        MOV     R0,#?V0 + 4
        LCALL   ?PUSH_XSTACK_I_ONE
        CFI CFA_XSP16 add(XSP16, 27)
        MOV     R0,#?V0 + 2
        LCALL   ?PUSH_XSTACK_I_TWO
        CFI CFA_XSP16 add(XSP16, 29)
        MOV     ?V0 + 2,#0x4
        MOV     ?V0 + 3,#0xf
        MOV     R0,#?V0 + 2
        LCALL   ?PUSH_XSTACK_I_TWO
        CFI CFA_XSP16 add(XSP16, 31)
        MOV     R1,#0x4
        MOV     R4,#-0x1
        MOV     R5,#-0x1
        MOV     A,#0x8
        LCALL   ?XSTACK_DISP0_8
        MOV     R2,DPL
        MOV     R3,DPH
        LCALL   ??ZDP_MatchDescReq?relay
        MOV     A,#0x8
        LCALL   ?DEALLOC_XSTACK8
        CFI CFA_XSP16 add(XSP16, 23)
        LJMP    ??GenericApp_ProcessEvent_4 & 0xFFFF
??GenericApp_ProcessEvent_6:
        ; Setup parameters for call to function GenericApp_MessageMSGCB
        MOV     R2,?V0 + 0
        MOV     R3,?V0 + 1
        LCALL   ??GenericApp_MessageMSGCB?relay
        LJMP    ??GenericApp_ProcessEvent_4 & 0xFFFF
//  312     }
//  313 
//  314     // return unprocessed events
//  315     return (events ^ SYS_EVENT_MSG);
??GenericApp_ProcessEvent_5:
        MOV     A,R6
        MOV     R2,A
        MOV     A,R7
        XRL     A,#0x80
??GenericApp_ProcessEvent_14:
        MOV     R3,A
        SJMP    ??GenericApp_ProcessEvent_15
//  316   }
//  317 
//  318   // Send a message out - This event is generated by a timer
//  319   //  (setup in GenericApp_Init()).
//  320   if ( events & GENERICAPP_SEND_MSG_EVT )
??GenericApp_ProcessEvent_0:
        MOV     A,R6
        MOV     C,0xE0 /* A   */.0
        JNC     ??GenericApp_ProcessEvent_16
//  321   {
//  322     // Send "the" message
//  323     GenericApp_SendTheMessage();
//  324 
//  325     // Setup to send message again
//  326     osal_start_timerEx( GenericApp_TaskID,
//  327                         GENERICAPP_SEND_MSG_EVT,
//  328                         GENERICAPP_SEND_MSG_TIMEOUT );
        ; Setup parameters for call to function osal_start_timerEx
        MOV     R4,#-0x78
        MOV     R5,#0x13
        MOV     R2,#0x1
        MOV     R3,#0x0
        MOV     DPTR,#GenericApp_TaskID
        MOVX    A,@DPTR
        MOV     R1,A
        LCALL   ??osal_start_timerEx?relay
//  329 
//  330     // return unprocessed events
//  331     return (events ^ GENERICAPP_SEND_MSG_EVT);
        MOV     A,R6
        XRL     A,#0x1
        MOV     R2,A
        MOV     A,R7
        SJMP    ??GenericApp_ProcessEvent_14
//  332   }
//  333 
//  334   
//  335 #if defined( IAR_ARMCM3_LM )
//  336   // Receive a message from the RTOS queue
//  337   if ( events & GENERICAPP_RTOS_MSG_EVT )
//  338   {
//  339     // Process message from RTOS queue
//  340     GenericApp_ProcessRtosMessage();
//  341 
//  342     // return unprocessed events
//  343     return (events ^ GENERICAPP_RTOS_MSG_EVT);
//  344   }
//  345 #endif
//  346 
//  347   // Discard unknown events
//  348   return 0;
??GenericApp_ProcessEvent_16:
        MOV     R2,#0x0
        MOV     R3,#0x0
??GenericApp_ProcessEvent_15:
        MOV     A,#0x9
        LCALL   ?DEALLOC_XSTACK8
        CFI CFA_XSP16 add(XSP16, 14)
        MOV     R7,#0x6
        LJMP    ?BANKED_LEAVE_XDATA
        CFI EndBlock cfiBlock1
//  349 }

        RSEG BANKED_CODE:CODE:NOROOT(0)
?Subroutine2:
        CFI Block cfiCond2 Using cfiCommon0
        CFI NoFunction
        CFI Conditional ??CrossCallReturnLabel_14
        CFI R6 load(1, XDATA, add(CFA_XSP16, literal(-14)))
        CFI VB load(1, XDATA, add(CFA_XSP16, literal(-13)))
        CFI V0 load(1, XDATA, add(CFA_XSP16, literal(-12)))
        CFI V1 load(1, XDATA, add(CFA_XSP16, literal(-11)))
        CFI V2 load(1, XDATA, add(CFA_XSP16, literal(-10)))
        CFI V3 load(1, XDATA, add(CFA_XSP16, literal(-9)))
        CFI V4 load(1, XDATA, add(CFA_XSP16, literal(-8)))
        CFI V5 load(1, XDATA, add(CFA_XSP16, literal(-7)))
        CFI R7 load(1, XDATA, add(CFA_XSP16, literal(-6)))
        CFI ?RET_LOW load(1, XDATA, add(CFA_XSP16, literal(-5)))
        CFI ?RET_HIGH load(1, XDATA, add(CFA_XSP16, literal(-4)))
        CFI ?BRET_EXT load(1, XDATA, add(CFA_XSP16, literal(-3)))
        CFI DPL0 load(1, XDATA, add(CFA_XSP16, literal(-2)))
        CFI DPH0 load(1, XDATA, add(CFA_XSP16, literal(-1)))
        CFI CFA_SP SP+0
        CFI CFA_XSP16 add(XSP16, 23)
        CFI Block cfiCond3 Using cfiCommon0
        CFI (cfiCond3) NoFunction
        CFI (cfiCond3) Conditional ??CrossCallReturnLabel_15
        CFI (cfiCond3) R6 load(1, XDATA, add(CFA_XSP16, literal(-14)))
        CFI (cfiCond3) VB load(1, XDATA, add(CFA_XSP16, literal(-13)))
        CFI (cfiCond3) V0 load(1, XDATA, add(CFA_XSP16, literal(-12)))
        CFI (cfiCond3) V1 load(1, XDATA, add(CFA_XSP16, literal(-11)))
        CFI (cfiCond3) V2 load(1, XDATA, add(CFA_XSP16, literal(-10)))
        CFI (cfiCond3) V3 load(1, XDATA, add(CFA_XSP16, literal(-9)))
        CFI (cfiCond3) V4 load(1, XDATA, add(CFA_XSP16, literal(-8)))
        CFI (cfiCond3) V5 load(1, XDATA, add(CFA_XSP16, literal(-7)))
        CFI (cfiCond3) R7 load(1, XDATA, add(CFA_XSP16, literal(-6)))
        CFI (cfiCond3) ?RET_LOW load(1, XDATA, add(CFA_XSP16, literal(-5)))
        CFI (cfiCond3) ?RET_HIGH load(1, XDATA, add(CFA_XSP16, literal(-4)))
        CFI (cfiCond3) ?BRET_EXT load(1, XDATA, add(CFA_XSP16, literal(-3)))
        CFI (cfiCond3) DPL0 load(1, XDATA, add(CFA_XSP16, literal(-2)))
        CFI (cfiCond3) DPH0 load(1, XDATA, add(CFA_XSP16, literal(-1)))
        CFI (cfiCond3) CFA_SP SP+0
        CFI (cfiCond3) CFA_XSP16 add(XSP16, 23)
        CFI Block cfiPicker4 Using cfiCommon1
        CFI (cfiPicker4) NoFunction
        CFI (cfiPicker4) Picker
        MOV     DPL,A
        MOV     A,?V0 + 1
        CFI EndBlock cfiCond2
        CFI EndBlock cfiCond3
        CFI EndBlock cfiPicker4
        REQUIRE ??Subroutine4_0
        ; // Fall through to label ??Subroutine4_0

        RSEG BANKED_CODE:CODE:NOROOT(0)
??Subroutine4_0:
        CFI Block cfiCond5 Using cfiCommon0
        CFI NoFunction
        CFI Conditional ??CrossCallReturnLabel_12
        CFI R6 load(1, XDATA, add(CFA_XSP16, literal(-11)))
        CFI VB load(1, XDATA, add(CFA_XSP16, literal(-10)))
        CFI V0 load(1, XDATA, add(CFA_XSP16, literal(-9)))
        CFI V1 load(1, XDATA, add(CFA_XSP16, literal(-8)))
        CFI V2 load(1, XDATA, add(CFA_XSP16, literal(-7)))
        CFI R7 load(1, XDATA, add(CFA_XSP16, literal(-6)))
        CFI ?RET_LOW load(1, XDATA, add(CFA_XSP16, literal(-5)))
        CFI ?RET_HIGH load(1, XDATA, add(CFA_XSP16, literal(-4)))
        CFI ?BRET_EXT load(1, XDATA, add(CFA_XSP16, literal(-3)))
        CFI DPL0 load(1, XDATA, add(CFA_XSP16, literal(-2)))
        CFI DPH0 load(1, XDATA, add(CFA_XSP16, literal(-1)))
        CFI CFA_SP SP+0
        CFI CFA_XSP16 add(XSP16, 16)
        CFI Block cfiCond6 Using cfiCommon0
        CFI (cfiCond6) NoFunction
        CFI (cfiCond6) Conditional ??CrossCallReturnLabel_13
        CFI (cfiCond6) R6 load(1, XDATA, add(CFA_XSP16, literal(-11)))
        CFI (cfiCond6) VB load(1, XDATA, add(CFA_XSP16, literal(-10)))
        CFI (cfiCond6) V0 load(1, XDATA, add(CFA_XSP16, literal(-9)))
        CFI (cfiCond6) V1 load(1, XDATA, add(CFA_XSP16, literal(-8)))
        CFI (cfiCond6) V2 load(1, XDATA, add(CFA_XSP16, literal(-7)))
        CFI (cfiCond6) R7 load(1, XDATA, add(CFA_XSP16, literal(-6)))
        CFI (cfiCond6) ?RET_LOW load(1, XDATA, add(CFA_XSP16, literal(-5)))
        CFI (cfiCond6) ?RET_HIGH load(1, XDATA, add(CFA_XSP16, literal(-4)))
        CFI (cfiCond6) ?BRET_EXT load(1, XDATA, add(CFA_XSP16, literal(-3)))
        CFI (cfiCond6) DPL0 load(1, XDATA, add(CFA_XSP16, literal(-2)))
        CFI (cfiCond6) DPH0 load(1, XDATA, add(CFA_XSP16, literal(-1)))
        CFI (cfiCond6) CFA_SP SP+0
        CFI (cfiCond6) CFA_XSP16 add(XSP16, 16)
        CFI Block cfiCond7 Using cfiCommon0
        CFI (cfiCond7) NoFunction
        CFI (cfiCond7) Conditional ??CrossCallReturnLabel_14
        CFI (cfiCond7) R6 load(1, XDATA, add(CFA_XSP16, literal(-14)))
        CFI (cfiCond7) VB load(1, XDATA, add(CFA_XSP16, literal(-13)))
        CFI (cfiCond7) V0 load(1, XDATA, add(CFA_XSP16, literal(-12)))
        CFI (cfiCond7) V1 load(1, XDATA, add(CFA_XSP16, literal(-11)))
        CFI (cfiCond7) V2 load(1, XDATA, add(CFA_XSP16, literal(-10)))
        CFI (cfiCond7) V3 load(1, XDATA, add(CFA_XSP16, literal(-9)))
        CFI (cfiCond7) V4 load(1, XDATA, add(CFA_XSP16, literal(-8)))
        CFI (cfiCond7) V5 load(1, XDATA, add(CFA_XSP16, literal(-7)))
        CFI (cfiCond7) R7 load(1, XDATA, add(CFA_XSP16, literal(-6)))
        CFI (cfiCond7) ?RET_LOW load(1, XDATA, add(CFA_XSP16, literal(-5)))
        CFI (cfiCond7) ?RET_HIGH load(1, XDATA, add(CFA_XSP16, literal(-4)))
        CFI (cfiCond7) ?BRET_EXT load(1, XDATA, add(CFA_XSP16, literal(-3)))
        CFI (cfiCond7) DPL0 load(1, XDATA, add(CFA_XSP16, literal(-2)))
        CFI (cfiCond7) DPH0 load(1, XDATA, add(CFA_XSP16, literal(-1)))
        CFI (cfiCond7) CFA_SP SP+0
        CFI (cfiCond7) CFA_XSP16 add(XSP16, 23)
        CFI Block cfiCond8 Using cfiCommon0
        CFI (cfiCond8) NoFunction
        CFI (cfiCond8) Conditional ??CrossCallReturnLabel_15
        CFI (cfiCond8) R6 load(1, XDATA, add(CFA_XSP16, literal(-14)))
        CFI (cfiCond8) VB load(1, XDATA, add(CFA_XSP16, literal(-13)))
        CFI (cfiCond8) V0 load(1, XDATA, add(CFA_XSP16, literal(-12)))
        CFI (cfiCond8) V1 load(1, XDATA, add(CFA_XSP16, literal(-11)))
        CFI (cfiCond8) V2 load(1, XDATA, add(CFA_XSP16, literal(-10)))
        CFI (cfiCond8) V3 load(1, XDATA, add(CFA_XSP16, literal(-9)))
        CFI (cfiCond8) V4 load(1, XDATA, add(CFA_XSP16, literal(-8)))
        CFI (cfiCond8) V5 load(1, XDATA, add(CFA_XSP16, literal(-7)))
        CFI (cfiCond8) R7 load(1, XDATA, add(CFA_XSP16, literal(-6)))
        CFI (cfiCond8) ?RET_LOW load(1, XDATA, add(CFA_XSP16, literal(-5)))
        CFI (cfiCond8) ?RET_HIGH load(1, XDATA, add(CFA_XSP16, literal(-4)))
        CFI (cfiCond8) ?BRET_EXT load(1, XDATA, add(CFA_XSP16, literal(-3)))
        CFI (cfiCond8) DPL0 load(1, XDATA, add(CFA_XSP16, literal(-2)))
        CFI (cfiCond8) DPH0 load(1, XDATA, add(CFA_XSP16, literal(-1)))
        CFI (cfiCond8) CFA_SP SP+0
        CFI (cfiCond8) CFA_XSP16 add(XSP16, 23)
        CFI Block cfiPicker9 Using cfiCommon1
        CFI (cfiPicker9) NoFunction
        CFI (cfiPicker9) Picker
        ADDC    A,#0x0
        MOV     DPH,A
        MOVX    A,@DPTR
        RET
        CFI EndBlock cfiCond5
        CFI EndBlock cfiCond6
        CFI EndBlock cfiCond7
        CFI EndBlock cfiCond8
        CFI EndBlock cfiPicker9

        RSEG BANKED_CODE:CODE:NOROOT(0)
?Subroutine1:
        CFI Block cfiCond10 Using cfiCommon0
        CFI NoFunction
        CFI Conditional ??CrossCallReturnLabel_4
        CFI R6 load(1, XDATA, add(CFA_XSP16, literal(-9)))
        CFI VB load(1, XDATA, add(CFA_XSP16, literal(-8)))
        CFI V0 load(1, XDATA, add(CFA_XSP16, literal(-7)))
        CFI R7 load(1, XDATA, add(CFA_XSP16, literal(-6)))
        CFI ?RET_LOW load(1, XDATA, add(CFA_XSP16, literal(-5)))
        CFI ?RET_HIGH load(1, XDATA, add(CFA_XSP16, literal(-4)))
        CFI ?BRET_EXT load(1, XDATA, add(CFA_XSP16, literal(-3)))
        CFI DPL0 load(1, XDATA, add(CFA_XSP16, literal(-2)))
        CFI DPH0 load(1, XDATA, add(CFA_XSP16, literal(-1)))
        CFI CFA_SP SP+0
        CFI CFA_XSP16 add(XSP16, 38)
        CFI Block cfiCond11 Using cfiCommon0
        CFI (cfiCond11) NoFunction
        CFI (cfiCond11) Conditional ??CrossCallReturnLabel_5
        CFI (cfiCond11) R6 load(1, XDATA, add(CFA_XSP16, literal(-9)))
        CFI (cfiCond11) VB load(1, XDATA, add(CFA_XSP16, literal(-8)))
        CFI (cfiCond11) V0 load(1, XDATA, add(CFA_XSP16, literal(-7)))
        CFI (cfiCond11) R7 load(1, XDATA, add(CFA_XSP16, literal(-6)))
        CFI (cfiCond11) ?RET_LOW load(1, XDATA, add(CFA_XSP16, literal(-5)))
        CFI (cfiCond11) ?RET_HIGH load(1, XDATA, add(CFA_XSP16, literal(-4)))
        CFI (cfiCond11) ?BRET_EXT load(1, XDATA, add(CFA_XSP16, literal(-3)))
        CFI (cfiCond11) DPL0 load(1, XDATA, add(CFA_XSP16, literal(-2)))
        CFI (cfiCond11) DPH0 load(1, XDATA, add(CFA_XSP16, literal(-1)))
        CFI (cfiCond11) CFA_SP SP+0
        CFI (cfiCond11) CFA_XSP16 add(XSP16, 38)
        CFI Block cfiCond12 Using cfiCommon0
        CFI (cfiCond12) NoFunction
        CFI (cfiCond12) Conditional ??CrossCallReturnLabel_6
        CFI (cfiCond12) R6 load(1, XDATA, add(CFA_XSP16, literal(-14)))
        CFI (cfiCond12) VB load(1, XDATA, add(CFA_XSP16, literal(-13)))
        CFI (cfiCond12) V0 load(1, XDATA, add(CFA_XSP16, literal(-12)))
        CFI (cfiCond12) V1 load(1, XDATA, add(CFA_XSP16, literal(-11)))
        CFI (cfiCond12) V2 load(1, XDATA, add(CFA_XSP16, literal(-10)))
        CFI (cfiCond12) V3 load(1, XDATA, add(CFA_XSP16, literal(-9)))
        CFI (cfiCond12) V4 load(1, XDATA, add(CFA_XSP16, literal(-8)))
        CFI (cfiCond12) V5 load(1, XDATA, add(CFA_XSP16, literal(-7)))
        CFI (cfiCond12) R7 load(1, XDATA, add(CFA_XSP16, literal(-6)))
        CFI (cfiCond12) ?RET_LOW load(1, XDATA, add(CFA_XSP16, literal(-5)))
        CFI (cfiCond12) ?RET_HIGH load(1, XDATA, add(CFA_XSP16, literal(-4)))
        CFI (cfiCond12) ?BRET_EXT load(1, XDATA, add(CFA_XSP16, literal(-3)))
        CFI (cfiCond12) DPL0 load(1, XDATA, add(CFA_XSP16, literal(-2)))
        CFI (cfiCond12) DPH0 load(1, XDATA, add(CFA_XSP16, literal(-1)))
        CFI (cfiCond12) CFA_SP SP+0
        CFI (cfiCond12) CFA_XSP16 add(XSP16, 23)
        CFI Block cfiCond13 Using cfiCommon0
        CFI (cfiCond13) NoFunction
        CFI (cfiCond13) Conditional ??CrossCallReturnLabel_7
        CFI (cfiCond13) R6 load(1, XDATA, add(CFA_XSP16, literal(-14)))
        CFI (cfiCond13) VB load(1, XDATA, add(CFA_XSP16, literal(-13)))
        CFI (cfiCond13) V0 load(1, XDATA, add(CFA_XSP16, literal(-12)))
        CFI (cfiCond13) V1 load(1, XDATA, add(CFA_XSP16, literal(-11)))
        CFI (cfiCond13) V2 load(1, XDATA, add(CFA_XSP16, literal(-10)))
        CFI (cfiCond13) V3 load(1, XDATA, add(CFA_XSP16, literal(-9)))
        CFI (cfiCond13) V4 load(1, XDATA, add(CFA_XSP16, literal(-8)))
        CFI (cfiCond13) V5 load(1, XDATA, add(CFA_XSP16, literal(-7)))
        CFI (cfiCond13) R7 load(1, XDATA, add(CFA_XSP16, literal(-6)))
        CFI (cfiCond13) ?RET_LOW load(1, XDATA, add(CFA_XSP16, literal(-5)))
        CFI (cfiCond13) ?RET_HIGH load(1, XDATA, add(CFA_XSP16, literal(-4)))
        CFI (cfiCond13) ?BRET_EXT load(1, XDATA, add(CFA_XSP16, literal(-3)))
        CFI (cfiCond13) DPL0 load(1, XDATA, add(CFA_XSP16, literal(-2)))
        CFI (cfiCond13) DPH0 load(1, XDATA, add(CFA_XSP16, literal(-1)))
        CFI (cfiCond13) CFA_SP SP+0
        CFI (cfiCond13) CFA_XSP16 add(XSP16, 23)
        CFI Block cfiPicker14 Using cfiCommon1
        CFI (cfiPicker14) NoFunction
        CFI (cfiPicker14) Picker
        MOVX    @DPTR,A
        ; Setup parameters for call to function HalUARTOpen
        MOV     DPL,?XSP + 0
        MOV     DPH,?XSP + 1
        RET
        CFI EndBlock cfiCond10
        CFI EndBlock cfiCond11
        CFI EndBlock cfiCond12
        CFI EndBlock cfiCond13
        CFI EndBlock cfiPicker14
//  350 
//  351 /*********************************************************************
//  352  * Event Generation Functions
//  353  */
//  354 
//  355 /*********************************************************************
//  356  * @fn      GenericApp_ProcessZDOMsgs()
//  357  *
//  358  * @brief   Process response messages
//  359  *
//  360  * @param   none
//  361  *
//  362  * @return  none
//  363  */
//  364 static void GenericApp_ProcessZDOMsgs( zdoIncomingMsg_t *inMsg )
//  365 {
//  366   switch ( inMsg->clusterID )
//  367   {
//  368     case End_Device_Bind_rsp:
//  369       if ( ZDO_ParseBindRsp( inMsg ) == ZSuccess )
//  370       {
//  371         // Light LED
//  372         HalLedSet( HAL_LED_4, HAL_LED_MODE_ON );
//  373       }
//  374 #if defined( BLINK_LEDS )
//  375       else
//  376       {
//  377         // Flash LED to show failure
//  378         HalLedSet ( HAL_LED_4, HAL_LED_MODE_FLASH );
//  379       }
//  380 #endif
//  381       break;
//  382 
//  383     case Match_Desc_rsp:
//  384       {
//  385         ZDO_ActiveEndpointRsp_t *pRsp = ZDO_ParseEPListRsp( inMsg );
//  386         if ( pRsp )
//  387         {
//  388           if ( pRsp->status == ZSuccess && pRsp->cnt )
//  389           {
//  390             GenericApp_DstAddr.addrMode = (afAddrMode_t)Addr16Bit;
//  391             GenericApp_DstAddr.addr.shortAddr = pRsp->nwkAddr;
//  392             // Take the first endpoint, Can be changed to search through endpoints
//  393             GenericApp_DstAddr.endPoint = pRsp->epList[0];
//  394 
//  395             // Light LED
//  396             HalLedSet( HAL_LED_4, HAL_LED_MODE_ON );
//  397           }
//  398           osal_mem_free( pRsp );
//  399         }
//  400       }
//  401       break;
//  402   }
//  403 }
//  404 
//  405 /*********************************************************************
//  406  * @fn      GenericApp_HandleKeys
//  407  *
//  408  * @brief   Handles all key events for this device.
//  409  *
//  410  * @param   shift - true if in shift/alt.
//  411  * @param   keys - bit field for key events. Valid entries:
//  412  *                 HAL_KEY_SW_4
//  413  *                 HAL_KEY_SW_3
//  414  *                 HAL_KEY_SW_2
//  415  *                 HAL_KEY_SW_1
//  416  *
//  417  * @return  none
//  418  */
//  419 static void GenericApp_HandleKeys( uint8 shift, uint8 keys )
//  420 {
//  421   zAddrType_t dstAddr;
//  422 
//  423   // Shift is used to make each button/switch dual purpose.
//  424   if ( shift )
//  425   {
//  426     if ( keys & HAL_KEY_SW_1 )
//  427     {
//  428     }
//  429     if ( keys & HAL_KEY_SW_2 )
//  430     {
//  431     }
//  432     if ( keys & HAL_KEY_SW_3 )
//  433     {
//  434     }
//  435     if ( keys & HAL_KEY_SW_4 )
//  436     {
//  437     }
//  438   }
//  439   else
//  440   {
//  441     if ( keys & HAL_KEY_SW_1 )
//  442     {
//  443       // Since SW1 isn't used for anything else in this application...
//  444 #if defined( SWITCH1_BIND )
//  445       // we can use SW1 to simulate SW2 for devices that only have one switch,
//  446       keys |= HAL_KEY_SW_2;
//  447 #elif defined( SWITCH1_MATCH )
//  448       // or use SW1 to simulate SW4 for devices that only have one switch
//  449       keys |= HAL_KEY_SW_4;
//  450 #endif
//  451     }
//  452 
//  453     if ( keys & HAL_KEY_SW_2 )
//  454     {
//  455       HalLedSet ( HAL_LED_4, HAL_LED_MODE_OFF );
//  456 
//  457       // Initiate an End Device Bind Request for the mandatory endpoint
//  458       dstAddr.addrMode = Addr16Bit;
//  459       dstAddr.addr.shortAddr = 0x0000; // Coordinator
//  460       ZDP_EndDeviceBindReq( &dstAddr, NLME_GetShortAddr(),
//  461                             GenericApp_epDesc.endPoint,
//  462                             GENERICAPP_PROFID,
//  463                             GENERICAPP_MAX_CLUSTERS, (cId_t *)GenericApp_ClusterList,
//  464                             GENERICAPP_MAX_CLUSTERS, (cId_t *)GenericApp_ClusterList,
//  465                             FALSE );
//  466     }
//  467 
//  468     if ( keys & HAL_KEY_SW_3 )
//  469     {
//  470     }
//  471 
//  472     if ( keys & HAL_KEY_SW_4 )
//  473     {
//  474       HalLedSet ( HAL_LED_4, HAL_LED_MODE_OFF );
//  475       // Initiate a Match Description Request (Service Discovery)
//  476       dstAddr.addrMode = AddrBroadcast;
//  477       dstAddr.addr.shortAddr = NWK_BROADCAST_SHORTADDR;
//  478       ZDP_MatchDescReq( &dstAddr, NWK_BROADCAST_SHORTADDR,
//  479                         GENERICAPP_PROFID,
//  480                         GENERICAPP_MAX_CLUSTERS, (cId_t *)GenericApp_ClusterList,
//  481                         GENERICAPP_MAX_CLUSTERS, (cId_t *)GenericApp_ClusterList,
//  482                         FALSE );
//  483     }
//  484   }
//  485 }
//  486 
//  487 /*********************************************************************
//  488  * LOCAL FUNCTIONS
//  489  */
//  490 
//  491 /*********************************************************************
//  492  * @fn      GenericApp_MessageMSGCB
//  493  *
//  494  * @brief   Data message processor callback.  This function processes
//  495  *          any incoming data - probably from other devices.  So, based
//  496  *          on cluster ID, perform the intended action.
//  497  *
//  498  * @param   none
//  499  *
//  500  * @return  none
//  501  */

        RSEG BANKED_CODE:CODE:NOROOT(0)
//  502 static void GenericApp_MessageMSGCB( afIncomingMSGPacket_t *pkt )
GenericApp_MessageMSGCB:
        CFI Block cfiBlock15 Using cfiCommon0
        CFI Function GenericApp_MessageMSGCB
        CODE
//  503 {
        FUNCALL GenericApp_MessageMSGCB, osal_memcpy
        LOCFRAME ISTACK, 0, STACK
        LOCFRAME PSTACK, 0, STACK
        LOCFRAME XSTACK, 19, STACK
        LOCFRAME IOVERLAY, 0, STATIC
        LOCFRAME DOVERLAY, 0, STATIC
        ARGFRAME ISTACK, 0, STACK
        ARGFRAME PSTACK, 0, STACK
        ARGFRAME XSTACK, 19, STACK
        ARGFRAME IOVERLAY, 0, STATIC
        ARGFRAME DOVERLAY, 0, STATIC
        FUNCALL GenericApp_MessageMSGCB, HalUARTWrite
        LOCFRAME ISTACK, 0, STACK
        LOCFRAME PSTACK, 0, STACK
        LOCFRAME XSTACK, 16, STACK
        LOCFRAME IOVERLAY, 0, STATIC
        LOCFRAME DOVERLAY, 0, STATIC
        ARGFRAME ISTACK, 0, STACK
        ARGFRAME PSTACK, 0, STACK
        ARGFRAME XSTACK, 16, STACK
        ARGFRAME IOVERLAY, 0, STATIC
        ARGFRAME DOVERLAY, 0, STATIC
        FUNCALL GenericApp_MessageMSGCB, osal_memcpy
        LOCFRAME ISTACK, 0, STACK
        LOCFRAME PSTACK, 0, STACK
        LOCFRAME XSTACK, 19, STACK
        LOCFRAME IOVERLAY, 0, STATIC
        LOCFRAME DOVERLAY, 0, STATIC
        ARGFRAME ISTACK, 0, STACK
        ARGFRAME PSTACK, 0, STACK
        ARGFRAME XSTACK, 19, STACK
        ARGFRAME IOVERLAY, 0, STATIC
        ARGFRAME DOVERLAY, 0, STATIC
        FUNCALL GenericApp_MessageMSGCB, HalUARTWrite
        LOCFRAME ISTACK, 0, STACK
        LOCFRAME PSTACK, 0, STACK
        LOCFRAME XSTACK, 16, STACK
        LOCFRAME IOVERLAY, 0, STATIC
        LOCFRAME DOVERLAY, 0, STATIC
        ARGFRAME ISTACK, 0, STACK
        ARGFRAME PSTACK, 0, STACK
        ARGFRAME XSTACK, 16, STACK
        ARGFRAME IOVERLAY, 0, STATIC
        ARGFRAME DOVERLAY, 0, STATIC
        FUNCALL GenericApp_MessageMSGCB, osal_memcpy
        LOCFRAME ISTACK, 0, STACK
        LOCFRAME PSTACK, 0, STACK
        LOCFRAME XSTACK, 19, STACK
        LOCFRAME IOVERLAY, 0, STATIC
        LOCFRAME DOVERLAY, 0, STATIC
        ARGFRAME ISTACK, 0, STACK
        ARGFRAME PSTACK, 0, STACK
        ARGFRAME XSTACK, 19, STACK
        ARGFRAME IOVERLAY, 0, STATIC
        ARGFRAME DOVERLAY, 0, STATIC
        FUNCALL GenericApp_MessageMSGCB, HalUARTWrite
        LOCFRAME ISTACK, 0, STACK
        LOCFRAME PSTACK, 0, STACK
        LOCFRAME XSTACK, 16, STACK
        LOCFRAME IOVERLAY, 0, STATIC
        LOCFRAME DOVERLAY, 0, STATIC
        ARGFRAME ISTACK, 0, STACK
        ARGFRAME PSTACK, 0, STACK
        ARGFRAME XSTACK, 16, STACK
        ARGFRAME IOVERLAY, 0, STATIC
        ARGFRAME DOVERLAY, 0, STATIC
        FUNCALL GenericApp_MessageMSGCB, osal_memcpy
        LOCFRAME ISTACK, 0, STACK
        LOCFRAME PSTACK, 0, STACK
        LOCFRAME XSTACK, 19, STACK
        LOCFRAME IOVERLAY, 0, STATIC
        LOCFRAME DOVERLAY, 0, STATIC
        ARGFRAME ISTACK, 0, STACK
        ARGFRAME PSTACK, 0, STACK
        ARGFRAME XSTACK, 19, STACK
        ARGFRAME IOVERLAY, 0, STATIC
        ARGFRAME DOVERLAY, 0, STATIC
        FUNCALL GenericApp_MessageMSGCB, HalUARTWrite
        LOCFRAME ISTACK, 0, STACK
        LOCFRAME PSTACK, 0, STACK
        LOCFRAME XSTACK, 16, STACK
        LOCFRAME IOVERLAY, 0, STATIC
        LOCFRAME DOVERLAY, 0, STATIC
        ARGFRAME ISTACK, 0, STACK
        ARGFRAME PSTACK, 0, STACK
        ARGFRAME XSTACK, 16, STACK
        ARGFRAME IOVERLAY, 0, STATIC
        ARGFRAME DOVERLAY, 0, STATIC
        FUNCALL GenericApp_MessageMSGCB, HalUARTWrite
        LOCFRAME ISTACK, 0, STACK
        LOCFRAME PSTACK, 0, STACK
        LOCFRAME XSTACK, 16, STACK
        LOCFRAME IOVERLAY, 0, STATIC
        LOCFRAME DOVERLAY, 0, STATIC
        ARGFRAME ISTACK, 0, STACK
        ARGFRAME PSTACK, 0, STACK
        ARGFRAME XSTACK, 16, STACK
        ARGFRAME IOVERLAY, 0, STATIC
        ARGFRAME DOVERLAY, 0, STATIC
        FUNCALL GenericApp_MessageMSGCB, HalUARTWrite
        LOCFRAME ISTACK, 0, STACK
        LOCFRAME PSTACK, 0, STACK
        LOCFRAME XSTACK, 16, STACK
        LOCFRAME IOVERLAY, 0, STATIC
        LOCFRAME DOVERLAY, 0, STATIC
        ARGFRAME ISTACK, 0, STACK
        ARGFRAME PSTACK, 0, STACK
        ARGFRAME XSTACK, 16, STACK
        ARGFRAME IOVERLAY, 0, STATIC
        ARGFRAME DOVERLAY, 0, STATIC
        MOV     A,#-0xb
        LCALL   ?BANKED_ENTER_XDATA
        CFI DPH0 load(1, XDATA, add(CFA_XSP16, literal(-1)))
        CFI DPL0 load(1, XDATA, add(CFA_XSP16, literal(-2)))
        CFI ?BRET_EXT load(1, XDATA, add(CFA_XSP16, literal(-3)))
        CFI ?RET_HIGH load(1, XDATA, add(CFA_XSP16, literal(-4)))
        CFI ?RET_LOW load(1, XDATA, add(CFA_XSP16, literal(-5)))
        CFI R7 load(1, XDATA, add(CFA_XSP16, literal(-6)))
        CFI V2 load(1, XDATA, add(CFA_XSP16, literal(-7)))
        CFI V1 load(1, XDATA, add(CFA_XSP16, literal(-8)))
        CFI V0 load(1, XDATA, add(CFA_XSP16, literal(-9)))
        CFI VB load(1, XDATA, add(CFA_XSP16, literal(-10)))
        CFI R6 load(1, XDATA, add(CFA_XSP16, literal(-11)))
        CFI CFA_SP SP+0
        CFI CFA_XSP16 add(XSP16, 11)
        ; Saved register size: 11
        ; Auto size: 5
        MOV     A,#-0x5
        LCALL   ?ALLOC_XSTACK8
        CFI CFA_XSP16 add(XSP16, 16)
//  504   unsigned char str_uart[5];
//  505   
//  506   switch ( pkt->clusterId )
        MOV     DPL,R2
        MOV     DPH,R3
        INC     DPTR
        INC     DPTR
        INC     DPTR
        INC     DPTR
        MOVX    A,@DPTR
        MOV     ?V0 + 0,A
        INC     DPTR
        MOVX    A,@DPTR
        MOV     ?V0 + 1,A
        MOV     R0,#?V0 + 0
        LCALL   ?US_SWITCH_DENSE
`?<Jumptable for GenericApp_MessageMSGCB>_0`:
        DATA
        DATA16
        DATA
        DATA16
        DW        2
        DATA
        DATA8
        DATA
        DATA8
        DB        5
        DATA
        DATA16
        DATA
        DATA16
        DW        ??GenericApp_MessageMSGCB_0
        DATA
        DATA16
        DATA
        DATA16
        DW        ??GenericApp_MessageMSGCB_1
        DATA
        DATA16
        DATA
        DATA16
        DW        ??GenericApp_MessageMSGCB_0
        DATA
        DATA16
        DATA
        DATA16
        DW        ??GenericApp_MessageMSGCB_2
        DATA
        DATA16
        DATA
        DATA16
        DW        ??GenericApp_MessageMSGCB_3
        DATA
        DATA16
        DATA
        DATA16
        DW        ??GenericApp_MessageMSGCB_4
        DATA
        DATA16
        DATA
        DATA16
        DW        ??GenericApp_MessageMSGCB_5
        CODE
//  507   {
//  508       case GenericApp_GAN_CLUSTERID:
//  509         str_uart[0] = 'y';
??GenericApp_MessageMSGCB_1:
        MOV     DPL,?XSP + 0
        MOV     DPH,?XSP + 1
        MOV     A,#0x79
        LCALL   ?Subroutine0 & 0xFFFF
//  510         osal_memcpy(&str_uart[1],pkt->cmd.Data,4);
??CrossCallReturnLabel_0:
        LCALL   ?PUSH_XSTACK_I_THREE
        CFI CFA_XSP16 add(XSP16, 19)
        MOV     R4,#0x4
        MOV     R5,#0x0
        MOV     A,R4
        LCALL   ?XSTACK_DISP0_8
        LCALL   ?Subroutine3 & 0xFFFF
??CrossCallReturnLabel_8:
        LCALL   ?DEALLOC_XSTACK8
        CFI CFA_XSP16 add(XSP16, 16)
//  511         HalUARTWrite(0, str_uart, 5);
        ; Setup parameters for call to function HalUARTWrite
        MOV     R4,#0x5
??GenericApp_MessageMSGCB_6:
        MOV     R5,#0x0
        MOV     DPL,?XSP + 0
        MOV     DPH,?XSP + 1
        MOV     R2,DPL
        MOV     R3,DPH
        LJMP    ??GenericApp_MessageMSGCB_7 & 0xFFFF
//  512       break;
//  513       
//  514       case GenericApp_Guangqiang_CLUSTERID:
//  515         str_uart[0] = 'g';
??GenericApp_MessageMSGCB_2:
        MOV     DPL,?XSP + 0
        MOV     DPH,?XSP + 1
        MOV     A,#0x67
        LCALL   ?Subroutine0 & 0xFFFF
//  516         osal_memcpy(&str_uart[1],pkt->cmd.Data,3);
??CrossCallReturnLabel_1:
        LCALL   ?PUSH_XSTACK_I_THREE
        CFI CFA_XSP16 add(XSP16, 19)
        MOV     R4,#0x3
        MOV     R5,#0x0
        MOV     A,#0x4
        LCALL   ?XSTACK_DISP0_8
        LCALL   ?Subroutine3 & 0xFFFF
??CrossCallReturnLabel_9:
        LCALL   ?DEALLOC_XSTACK8
        CFI CFA_XSP16 add(XSP16, 16)
//  517         HalUARTWrite(0, str_uart, 4);
        ; Setup parameters for call to function HalUARTWrite
        MOV     R4,#0x4
        SJMP    ??GenericApp_MessageMSGCB_6
//  518       break;
//  519         
//  520       case GenericApp_rentihongwai_CLUSTERID:
//  521         str_uart[0] = 'r';
??GenericApp_MessageMSGCB_4:
        MOV     DPL,?XSP + 0
        MOV     DPH,?XSP + 1
        MOV     A,#0x72
        LCALL   ?Subroutine0 & 0xFFFF
//  522         osal_memcpy(&str_uart[1],pkt->cmd.Data,2);
??CrossCallReturnLabel_2:
        LCALL   ?PUSH_XSTACK_I_THREE
        CFI CFA_XSP16 add(XSP16, 19)
        MOV     R4,#0x2
        MOV     R5,#0x0
        MOV     A,#0x4
        LCALL   ?XSTACK_DISP0_8
        LCALL   ?Subroutine3 & 0xFFFF
??CrossCallReturnLabel_10:
        LCALL   ?DEALLOC_XSTACK8
        CFI CFA_XSP16 add(XSP16, 16)
//  523         HalUARTWrite(0, str_uart, 3);
        ; Setup parameters for call to function HalUARTWrite
        MOV     R4,#0x3
        MOV     R5,#0x0
        MOV     DPL,?XSP + 0
        MOV     DPH,?XSP + 1
        MOV     R2,DPL
        MOV     R3,DPH
        SJMP    ??GenericApp_MessageMSGCB_7
//  524         break;
//  525         
//  526       case GenericApp_wendu_CLUSTERID:
//  527         str_uart[0] = 'w';
??GenericApp_MessageMSGCB_3:
        MOV     DPL,?XSP + 0
        MOV     DPH,?XSP + 1
        MOV     A,#0x77
        LCALL   ?Subroutine0 & 0xFFFF
//  528         osal_memcpy(&str_uart[1],pkt->cmd.Data,3);
??CrossCallReturnLabel_3:
        LCALL   ?PUSH_XSTACK_I_THREE
        CFI CFA_XSP16 add(XSP16, 19)
        MOV     R4,#0x3
        MOV     R5,#0x0
        MOV     A,#0x4
        LCALL   ?XSTACK_DISP0_8
        LCALL   ?Subroutine3 & 0xFFFF
??CrossCallReturnLabel_11:
        LCALL   ?DEALLOC_XSTACK8
        CFI CFA_XSP16 add(XSP16, 16)
//  529         HalUARTWrite(0, str_uart, 4);
        ; Setup parameters for call to function HalUARTWrite
        MOV     R4,#0x4
        MOV     R5,#0x0
        MOV     DPL,?XSP + 0
        MOV     DPH,?XSP + 1
        MOV     R2,DPL
        MOV     R3,DPH
        MOV     R1,#0x0
        LCALL   ??HalUARTWrite?relay
//  530         HalUARTWrite(0, "\n", 1);
        ; Setup parameters for call to function HalUARTWrite
        MOV     R4,#0x1
        MOV     R5,#0x0
        MOV     R2,#`?<Constant "\\n">` & 0xff
        MOV     R3,#(`?<Constant "\\n">` >> 8) & 0xff
        SJMP    ??GenericApp_MessageMSGCB_7
//  531       break;
//  532       
//  533      case GenericApp_Sensor_CLUSTERID:        
//  534         HalUARTWrite(0, pkt->cmd.Data, pkt->cmd.DataLength);
??GenericApp_MessageMSGCB_5:
        ; Setup parameters for call to function HalUARTWrite
        MOV     A,R2
        ADD     A,#0x20
        MOV     DPL,A
        MOV     A,R3
        LCALL   ??Subroutine4_0 & 0xFFFF
??CrossCallReturnLabel_12:
        MOV     R4,A
        INC     DPTR
        MOVX    A,@DPTR
        MOV     R5,A
        MOV     A,R2
        ADD     A,#0x22
        MOV     DPL,A
        MOV     A,R3
        LCALL   ??Subroutine4_0 & 0xFFFF
??CrossCallReturnLabel_13:
        MOV     R2,A
        INC     DPTR
        MOVX    A,@DPTR
        MOV     R3,A
??GenericApp_MessageMSGCB_7:
        MOV     R1,#0x0
        LCALL   ??HalUARTWrite?relay
//  535         uint16 i = 0;
//  536         for(i=0;i<60000;i++)
//  537       break;
//  538   }
//  539    
//  540 }
??GenericApp_MessageMSGCB_0:
        MOV     A,#0x5
        LCALL   ?DEALLOC_XSTACK8
        CFI CFA_XSP16 add(XSP16, 11)
        MOV     R7,#0x3
        LJMP    ?BANKED_LEAVE_XDATA
        CFI EndBlock cfiBlock15

        RSEG BANKED_CODE:CODE:NOROOT(0)
?Subroutine3:
        CFI Block cfiCond16 Using cfiCommon0
        CFI NoFunction
        CFI Conditional ??CrossCallReturnLabel_8
        CFI R6 load(1, XDATA, add(CFA_XSP16, literal(-11)))
        CFI VB load(1, XDATA, add(CFA_XSP16, literal(-10)))
        CFI V0 load(1, XDATA, add(CFA_XSP16, literal(-9)))
        CFI V1 load(1, XDATA, add(CFA_XSP16, literal(-8)))
        CFI V2 load(1, XDATA, add(CFA_XSP16, literal(-7)))
        CFI R7 load(1, XDATA, add(CFA_XSP16, literal(-6)))
        CFI ?RET_LOW load(1, XDATA, add(CFA_XSP16, literal(-5)))
        CFI ?RET_HIGH load(1, XDATA, add(CFA_XSP16, literal(-4)))
        CFI ?BRET_EXT load(1, XDATA, add(CFA_XSP16, literal(-3)))
        CFI DPL0 load(1, XDATA, add(CFA_XSP16, literal(-2)))
        CFI DPH0 load(1, XDATA, add(CFA_XSP16, literal(-1)))
        CFI CFA_SP SP+0
        CFI CFA_XSP16 add(XSP16, 19)
        CFI Block cfiCond17 Using cfiCommon0
        CFI (cfiCond17) NoFunction
        CFI (cfiCond17) Conditional ??CrossCallReturnLabel_9
        CFI (cfiCond17) R6 load(1, XDATA, add(CFA_XSP16, literal(-11)))
        CFI (cfiCond17) VB load(1, XDATA, add(CFA_XSP16, literal(-10)))
        CFI (cfiCond17) V0 load(1, XDATA, add(CFA_XSP16, literal(-9)))
        CFI (cfiCond17) V1 load(1, XDATA, add(CFA_XSP16, literal(-8)))
        CFI (cfiCond17) V2 load(1, XDATA, add(CFA_XSP16, literal(-7)))
        CFI (cfiCond17) R7 load(1, XDATA, add(CFA_XSP16, literal(-6)))
        CFI (cfiCond17) ?RET_LOW load(1, XDATA, add(CFA_XSP16, literal(-5)))
        CFI (cfiCond17) ?RET_HIGH load(1, XDATA, add(CFA_XSP16, literal(-4)))
        CFI (cfiCond17) ?BRET_EXT load(1, XDATA, add(CFA_XSP16, literal(-3)))
        CFI (cfiCond17) DPL0 load(1, XDATA, add(CFA_XSP16, literal(-2)))
        CFI (cfiCond17) DPH0 load(1, XDATA, add(CFA_XSP16, literal(-1)))
        CFI (cfiCond17) CFA_SP SP+0
        CFI (cfiCond17) CFA_XSP16 add(XSP16, 19)
        CFI Block cfiCond18 Using cfiCommon0
        CFI (cfiCond18) NoFunction
        CFI (cfiCond18) Conditional ??CrossCallReturnLabel_10
        CFI (cfiCond18) R6 load(1, XDATA, add(CFA_XSP16, literal(-11)))
        CFI (cfiCond18) VB load(1, XDATA, add(CFA_XSP16, literal(-10)))
        CFI (cfiCond18) V0 load(1, XDATA, add(CFA_XSP16, literal(-9)))
        CFI (cfiCond18) V1 load(1, XDATA, add(CFA_XSP16, literal(-8)))
        CFI (cfiCond18) V2 load(1, XDATA, add(CFA_XSP16, literal(-7)))
        CFI (cfiCond18) R7 load(1, XDATA, add(CFA_XSP16, literal(-6)))
        CFI (cfiCond18) ?RET_LOW load(1, XDATA, add(CFA_XSP16, literal(-5)))
        CFI (cfiCond18) ?RET_HIGH load(1, XDATA, add(CFA_XSP16, literal(-4)))
        CFI (cfiCond18) ?BRET_EXT load(1, XDATA, add(CFA_XSP16, literal(-3)))
        CFI (cfiCond18) DPL0 load(1, XDATA, add(CFA_XSP16, literal(-2)))
        CFI (cfiCond18) DPH0 load(1, XDATA, add(CFA_XSP16, literal(-1)))
        CFI (cfiCond18) CFA_SP SP+0
        CFI (cfiCond18) CFA_XSP16 add(XSP16, 19)
        CFI Block cfiCond19 Using cfiCommon0
        CFI (cfiCond19) NoFunction
        CFI (cfiCond19) Conditional ??CrossCallReturnLabel_11
        CFI (cfiCond19) R6 load(1, XDATA, add(CFA_XSP16, literal(-11)))
        CFI (cfiCond19) VB load(1, XDATA, add(CFA_XSP16, literal(-10)))
        CFI (cfiCond19) V0 load(1, XDATA, add(CFA_XSP16, literal(-9)))
        CFI (cfiCond19) V1 load(1, XDATA, add(CFA_XSP16, literal(-8)))
        CFI (cfiCond19) V2 load(1, XDATA, add(CFA_XSP16, literal(-7)))
        CFI (cfiCond19) R7 load(1, XDATA, add(CFA_XSP16, literal(-6)))
        CFI (cfiCond19) ?RET_LOW load(1, XDATA, add(CFA_XSP16, literal(-5)))
        CFI (cfiCond19) ?RET_HIGH load(1, XDATA, add(CFA_XSP16, literal(-4)))
        CFI (cfiCond19) ?BRET_EXT load(1, XDATA, add(CFA_XSP16, literal(-3)))
        CFI (cfiCond19) DPL0 load(1, XDATA, add(CFA_XSP16, literal(-2)))
        CFI (cfiCond19) DPH0 load(1, XDATA, add(CFA_XSP16, literal(-1)))
        CFI (cfiCond19) CFA_SP SP+0
        CFI (cfiCond19) CFA_XSP16 add(XSP16, 19)
        CFI Block cfiPicker20 Using cfiCommon1
        CFI (cfiPicker20) NoFunction
        CFI (cfiPicker20) Picker
        MOV     R2,DPL
        MOV     R3,DPH
        LCALL   ??osal_memcpy?relay
        MOV     A,#0x3
        RET
        CFI EndBlock cfiCond16
        CFI EndBlock cfiCond17
        CFI EndBlock cfiCond18
        CFI EndBlock cfiCond19
        CFI EndBlock cfiPicker20

        RSEG BANKED_CODE:CODE:NOROOT(0)
?Subroutine0:
        CFI Block cfiCond21 Using cfiCommon0
        CFI NoFunction
        CFI Conditional ??CrossCallReturnLabel_0
        CFI R6 load(1, XDATA, add(CFA_XSP16, literal(-11)))
        CFI VB load(1, XDATA, add(CFA_XSP16, literal(-10)))
        CFI V0 load(1, XDATA, add(CFA_XSP16, literal(-9)))
        CFI V1 load(1, XDATA, add(CFA_XSP16, literal(-8)))
        CFI V2 load(1, XDATA, add(CFA_XSP16, literal(-7)))
        CFI R7 load(1, XDATA, add(CFA_XSP16, literal(-6)))
        CFI ?RET_LOW load(1, XDATA, add(CFA_XSP16, literal(-5)))
        CFI ?RET_HIGH load(1, XDATA, add(CFA_XSP16, literal(-4)))
        CFI ?BRET_EXT load(1, XDATA, add(CFA_XSP16, literal(-3)))
        CFI DPL0 load(1, XDATA, add(CFA_XSP16, literal(-2)))
        CFI DPH0 load(1, XDATA, add(CFA_XSP16, literal(-1)))
        CFI CFA_SP SP+0
        CFI CFA_XSP16 add(XSP16, 16)
        CFI Block cfiCond22 Using cfiCommon0
        CFI (cfiCond22) NoFunction
        CFI (cfiCond22) Conditional ??CrossCallReturnLabel_1
        CFI (cfiCond22) R6 load(1, XDATA, add(CFA_XSP16, literal(-11)))
        CFI (cfiCond22) VB load(1, XDATA, add(CFA_XSP16, literal(-10)))
        CFI (cfiCond22) V0 load(1, XDATA, add(CFA_XSP16, literal(-9)))
        CFI (cfiCond22) V1 load(1, XDATA, add(CFA_XSP16, literal(-8)))
        CFI (cfiCond22) V2 load(1, XDATA, add(CFA_XSP16, literal(-7)))
        CFI (cfiCond22) R7 load(1, XDATA, add(CFA_XSP16, literal(-6)))
        CFI (cfiCond22) ?RET_LOW load(1, XDATA, add(CFA_XSP16, literal(-5)))
        CFI (cfiCond22) ?RET_HIGH load(1, XDATA, add(CFA_XSP16, literal(-4)))
        CFI (cfiCond22) ?BRET_EXT load(1, XDATA, add(CFA_XSP16, literal(-3)))
        CFI (cfiCond22) DPL0 load(1, XDATA, add(CFA_XSP16, literal(-2)))
        CFI (cfiCond22) DPH0 load(1, XDATA, add(CFA_XSP16, literal(-1)))
        CFI (cfiCond22) CFA_SP SP+0
        CFI (cfiCond22) CFA_XSP16 add(XSP16, 16)
        CFI Block cfiCond23 Using cfiCommon0
        CFI (cfiCond23) NoFunction
        CFI (cfiCond23) Conditional ??CrossCallReturnLabel_2
        CFI (cfiCond23) R6 load(1, XDATA, add(CFA_XSP16, literal(-11)))
        CFI (cfiCond23) VB load(1, XDATA, add(CFA_XSP16, literal(-10)))
        CFI (cfiCond23) V0 load(1, XDATA, add(CFA_XSP16, literal(-9)))
        CFI (cfiCond23) V1 load(1, XDATA, add(CFA_XSP16, literal(-8)))
        CFI (cfiCond23) V2 load(1, XDATA, add(CFA_XSP16, literal(-7)))
        CFI (cfiCond23) R7 load(1, XDATA, add(CFA_XSP16, literal(-6)))
        CFI (cfiCond23) ?RET_LOW load(1, XDATA, add(CFA_XSP16, literal(-5)))
        CFI (cfiCond23) ?RET_HIGH load(1, XDATA, add(CFA_XSP16, literal(-4)))
        CFI (cfiCond23) ?BRET_EXT load(1, XDATA, add(CFA_XSP16, literal(-3)))
        CFI (cfiCond23) DPL0 load(1, XDATA, add(CFA_XSP16, literal(-2)))
        CFI (cfiCond23) DPH0 load(1, XDATA, add(CFA_XSP16, literal(-1)))
        CFI (cfiCond23) CFA_SP SP+0
        CFI (cfiCond23) CFA_XSP16 add(XSP16, 16)
        CFI Block cfiCond24 Using cfiCommon0
        CFI (cfiCond24) NoFunction
        CFI (cfiCond24) Conditional ??CrossCallReturnLabel_3
        CFI (cfiCond24) R6 load(1, XDATA, add(CFA_XSP16, literal(-11)))
        CFI (cfiCond24) VB load(1, XDATA, add(CFA_XSP16, literal(-10)))
        CFI (cfiCond24) V0 load(1, XDATA, add(CFA_XSP16, literal(-9)))
        CFI (cfiCond24) V1 load(1, XDATA, add(CFA_XSP16, literal(-8)))
        CFI (cfiCond24) V2 load(1, XDATA, add(CFA_XSP16, literal(-7)))
        CFI (cfiCond24) R7 load(1, XDATA, add(CFA_XSP16, literal(-6)))
        CFI (cfiCond24) ?RET_LOW load(1, XDATA, add(CFA_XSP16, literal(-5)))
        CFI (cfiCond24) ?RET_HIGH load(1, XDATA, add(CFA_XSP16, literal(-4)))
        CFI (cfiCond24) ?BRET_EXT load(1, XDATA, add(CFA_XSP16, literal(-3)))
        CFI (cfiCond24) DPL0 load(1, XDATA, add(CFA_XSP16, literal(-2)))
        CFI (cfiCond24) DPH0 load(1, XDATA, add(CFA_XSP16, literal(-1)))
        CFI (cfiCond24) CFA_SP SP+0
        CFI (cfiCond24) CFA_XSP16 add(XSP16, 16)
        CFI Block cfiPicker25 Using cfiCommon1
        CFI (cfiPicker25) NoFunction
        CFI (cfiPicker25) Picker
        MOVX    @DPTR,A
        ; Setup parameters for call to function osal_memcpy
        ; Setup parameters for call to function osal_memcpy
        ; Setup parameters for call to function osal_memcpy
        ; Setup parameters for call to function osal_memcpy
        MOV     A,R2
        ADD     A,#0x22
        MOV     DPL,A
        MOV     A,R3
        ADDC    A,#0x0
        MOV     DPH,A
        MOVX    A,@DPTR
        MOV     ?V0 + 0,A
        INC     DPTR
        MOVX    A,@DPTR
        MOV     ?V0 + 1,A
        MOV     ?V0 + 2,#0x0
        MOV     R0,#?V0 + 0
        RET
        CFI EndBlock cfiCond21
        CFI EndBlock cfiCond22
        CFI EndBlock cfiCond23
        CFI EndBlock cfiCond24
        CFI EndBlock cfiPicker25

        RSEG BANK_RELAYS:CODE:REORDER:NOROOT(0)
??GenericApp_Init?relay:
        LCALL   ?BDISPATCH
        DATA
        DC24    GenericApp_Init

        RSEG BANK_RELAYS:CODE:REORDER:NOROOT(0)
??GenericApp_ProcessEvent?relay:
        LCALL   ?BDISPATCH
        DATA
        DC24    GenericApp_ProcessEvent

        RSEG BANK_RELAYS:CODE:REORDER:NOROOT(0)
??GenericApp_MessageMSGCB?relay:
        LCALL   ?BDISPATCH
        DATA
        DC24    GenericApp_MessageMSGCB

        RSEG XDATA_ROM_C:CONST:REORDER:NOROOT(0)
        DATA8
`?<Constant "GenericApp">`:
        DB "GenericApp"

        RSEG XDATA_ROM_C:CONST:REORDER:NOROOT(0)
        DATA16
`?<Constant "\\n">`:
        DB "\012"

        END
//  541 
//  542 /*********************************************************************
//  543  * @fn      GenericApp_SendTheMessage
//  544  *
//  545  * @brief   Send "the" message.
//  546  *
//  547  * @param   none
//  548  *
//  549  * @return  none
//  550  */
//  551 static void GenericApp_SendTheMessage( void )
//  552 {
//  553   /*char theMessageData[] = "Hello World";
//  554 
//  555   if ( AF_DataRequest( &GenericApp_DstAddr, &GenericApp_epDesc,
//  556                        GENERICAPP_CLUSTERID,
//  557                        (byte)osal_strlen( theMessageData ) + 1,
//  558                        (byte *)&theMessageData,
//  559                        &GenericApp_TransID,
//  560                        AF_DISCV_ROUTE, AF_DEFAULT_RADIUS ) == afStatus_SUCCESS )
//  561   {
//  562     // Successfully requested to be sent.
//  563   }
//  564   else
//  565   {
//  566     // Error occurred in request to send.
//  567   }*/
//  568 }
//  569 
//  570 #if defined( IAR_ARMCM3_LM )
//  571 /*********************************************************************
//  572  * @fn      GenericApp_ProcessRtosMessage
//  573  *
//  574  * @brief   Receive message from RTOS queue, send response back.
//  575  *
//  576  * @param   none
//  577  *
//  578  * @return  none
//  579  */
//  580 static void GenericApp_ProcessRtosMessage( void )
//  581 {
//  582   osalQueue_t inMsg;
//  583 
//  584   if ( osal_queue_receive( OsalQueue, &inMsg, 0 ) == pdPASS )
//  585   {
//  586     uint8 cmndId = inMsg.cmnd;
//  587     uint32 counter = osal_build_uint32( inMsg.cbuf, 4 );
//  588 
//  589     switch ( cmndId )
//  590     {
//  591       case CMD_INCR:
//  592         counter += 1;  /* Increment the incoming counter */
//  593                        /* Intentionally fall through next case */
//  594 
//  595       case CMD_ECHO:
//  596       {
//  597         userQueue_t outMsg;
//  598 
//  599         outMsg.resp = RSP_CODE | cmndId;  /* Response ID */
//  600         osal_buffer_uint32( outMsg.rbuf, counter );    /* Increment counter */
//  601         osal_queue_send( UserQueue1, &outMsg, 0 );  /* Send back to UserTask */
//  602         break;
//  603       }
//  604       
//  605       default:
//  606         break;  /* Ignore unknown command */    
//  607     }
//  608   }
//  609 }
//  610 #endif
//  611 
//  612 /*********************************************************************
//  613  */
// 
// 1 025 bytes in segment BANKED_CODE
//    18 bytes in segment BANK_RELAYS
//    33 bytes in segment XDATA_ROM_C
//    21 bytes in segment XDATA_Z
// 
// 1 043 bytes of CODE  memory
//    33 bytes of CONST memory
//    21 bytes of XDATA memory
//
//Errors: none
//Warnings: none
