///////////////////////////////////////////////////////////////////////////////
//                                                                            /
// IAR C/C++ Compiler V8.10.1.40194/W32 for 8051        08/Nov/2018  14:58:44 /
// Copyright 2004-2011 IAR Systems AB.                                        /
//                                                                            /
//    Core               =  plain                                             /
//    Code model         =  banked                                            /
//    Data model         =  large                                             /
//    Calling convention =  xdata reentrant                                   /
//    Constant location  =  data_rom                                          /
//    Dptr setup         =  1,16                                              /
//    Source file        =  E:\我的论文\2018-Applied                          /
//                          Sciences\SensorNetwork\ZStack-CC2530-2.5.1a\Proje /
//                          cts\zstack\Samples\GenericApp\Source\enddevice.c  /
//    Command line       =  -f "E:\我的论文\2018-Applied                      /
//                          Sciences\SensorNetwork\ZStack-CC2530-2.5.1a\Proje /
//                          cts\zstack\Samples\GenericApp\CC2530DB\..\..\..\T /
//                          ools\CC2530DB\f8wEndev.cfg" (-DCPU32MHZ           /
//                          -DROOT=__near_func -DMAC_CFG_TX_DATA_MAX=3        /
//                          -DMAC_CFG_TX_MAX=6 -DMAC_CFG_RX_MAX=3) -f         /
//                          "E:\我的论文\2018-Applied                         /
//                          Sciences\SensorNetwork\ZStack-CC2530-2.5.1a\Proje /
//                          cts\zstack\Samples\GenericApp\CC2530DB\..\..\..\T /
//                          ools\CC2530DB\f8wConfig.cfg" (-DZIGBEEPRO         /
//                          -DSECURE=0 -DZG_SECURE_DYNAMIC=0 -DREFLECTOR      /
//                          -DDEFAULT_CHANLIST=0x00000800                     /
//                          -DZDAPP_CONFIG_PAN_ID=0xFFFF                      /
//                          -DNWK_START_DELAY=100 -DEXTENDED_JOINING_RANDOM_M /
//                          ASK=0x007F -DBEACON_REQUEST_DELAY=100             /
//                          -DBEACON_REQ_DELAY_MASK=0x00FF                    /
//                          -DLINK_STATUS_JITTER_MASK=0x007F                  /
//                          -DROUTE_EXPIRY_TIME=30 -DAPSC_ACK_WAIT_DURATION_P /
//                          OLLED=3000 -DNWK_INDIRECT_MSG_TIMEOUT=7           /
//                          -DMAX_RREQ_ENTRIES=8 -DAPSC_MAX_FRAME_RETRIES=3   /
//                          -DNWK_MAX_DATA_RETRIES=2                          /
//                          -DMAX_POLL_FAILURE_RETRIES=2 -DMAX_BCAST=9        /
//                          -DAPS_MAX_GROUPS=16 -DMAX_RTG_ENTRIES=40          /
//                          -DNWK_MAX_BINDING_ENTRIES=4                       /
//                          -DMAX_BINDING_CLUSTER_IDS=4                       /
//                          "-DDEFAULT_KEY={0x01, 0x03, 0x05, 0x07, 0x09,     /
//                          0x0B, 0x0D, 0x0F, 0x00, 0x02, 0x04, 0x06, 0x08,   /
//                          0x0A, 0x0C, 0x0D}" -DMAC_MAX_FRAME_SIZE=116       /
//                          -DZDNWKMGR_MIN_TRANSMISSIONS=20 "-DCONST=const    /
//                          __code" -DGENERIC=__generic                       /
//                          -DRFD_RCVC_ALWAYS_ON=FALSE -DPOLL_RATE=1000       /
//                          -DQUEUED_POLL_RATE=100 -DRESPONSE_POLL_RATE=100)  /
//                          -DREJOIN_POLL_RATE=440 "E:\我的论文\2018-Applied  /
//                          Sciences\SensorNetwork\ZStack-CC2530-2.5.1a\Proje /
//                          cts\zstack\Samples\GenericApp\Source\enddevice.c" /
//                           -D NWK_AUTO_POLL -D ZTOOL_P1 -D MT_TASK -D       /
//                          MT_SYS_FUNC -D MT_ZDO_FUNC -D                     /
//                          LCD_SUPPORTED=DEBUG -D xPOWER_SAVING -lC          /
//                          "E:\我的论文\2018-Applied                         /
//                          Sciences\SensorNetwork\ZStack-CC2530-2.5.1a\Proje /
//                          cts\zstack\Samples\GenericApp\CC2530DB\EndDeviceE /
//                          B\List\" -lA "E:\我的论文\2018-Applied            /
//                          Sciences\SensorNetwork\ZStack-CC2530-2.5.1a\Proje /
//                          cts\zstack\Samples\GenericApp\CC2530DB\EndDeviceE /
//                          B\List\" --diag_suppress Pe001,Pa010 -o           /
//                          "E:\我的论文\2018-Applied                         /
//                          Sciences\SensorNetwork\ZStack-CC2530-2.5.1a\Proje /
//                          cts\zstack\Samples\GenericApp\CC2530DB\EndDeviceE /
//                          B\Obj\" -e --no_code_motion --debug --core=plain  /
//                          --dptr=16,1 --data_model=large                    /
//                          --code_model=banked --calling_convention=xdata_re /
//                          entrant --place_constants=data_rom                /
//                          --nr_virtual_regs 16 -I                           /
//                          "E:\我的论文\2018-Applied                         /
//                          Sciences\SensorNetwork\ZStack-CC2530-2.5.1a\Proje /
//                          cts\zstack\Samples\GenericApp\CC2530DB\" -I       /
//                          "E:\我的论文\2018-Applied                         /
//                          Sciences\SensorNetwork\ZStack-CC2530-2.5.1a\Proje /
//                          cts\zstack\Samples\GenericApp\CC2530DB\..\Source\ /
//                          " -I "E:\我的论文\2018-Applied                    /
//                          Sciences\SensorNetwork\ZStack-CC2530-2.5.1a\Proje /
//                          cts\zstack\Samples\GenericApp\CC2530DB\..\..\..\Z /
//                          Main\TI2530DB\" -I "E:\我的论文\2018-Applied      /
//                          Sciences\SensorNetwork\ZStack-CC2530-2.5.1a\Proje /
//                          cts\zstack\Samples\GenericApp\CC2530DB\..\..\..\. /
//                          .\..\Components\hal\include\" -I                  /
//                          "E:\我的论文\2018-Applied                         /
//                          Sciences\SensorNetwork\ZStack-CC2530-2.5.1a\Proje /
//                          cts\zstack\Samples\GenericApp\CC2530DB\..\..\..\. /
//                          .\..\Components\hal\target\CC2530EB\" -I          /
//                          "E:\我的论文\2018-Applied                         /
//                          Sciences\SensorNetwork\ZStack-CC2530-2.5.1a\Proje /
//                          cts\zstack\Samples\GenericApp\CC2530DB\..\..\..\. /
//                          .\..\Components\mac\include\" -I                  /
//                          "E:\我的论文\2018-Applied                         /
//                          Sciences\SensorNetwork\ZStack-CC2530-2.5.1a\Proje /
//                          cts\zstack\Samples\GenericApp\CC2530DB\..\..\..\. /
//                          .\..\Components\mac\high_level\" -I               /
//                          "E:\我的论文\2018-Applied                         /
//                          Sciences\SensorNetwork\ZStack-CC2530-2.5.1a\Proje /
//                          cts\zstack\Samples\GenericApp\CC2530DB\..\..\..\. /
//                          .\..\Components\mac\low_level\srf04\" -I          /
//                          "E:\我的论文\2018-Applied                         /
//                          Sciences\SensorNetwork\ZStack-CC2530-2.5.1a\Proje /
//                          cts\zstack\Samples\GenericApp\CC2530DB\..\..\..\. /
//                          .\..\Components\mac\low_level\srf04\single_chip\" /
//                           -I "E:\我的论文\2018-Applied                     /
//                          Sciences\SensorNetwork\ZStack-CC2530-2.5.1a\Proje /
//                          cts\zstack\Samples\GenericApp\CC2530DB\..\..\..\. /
//                          .\..\Components\mt\" -I                           /
//                          "E:\我的论文\2018-Applied                         /
//                          Sciences\SensorNetwork\ZStack-CC2530-2.5.1a\Proje /
//                          cts\zstack\Samples\GenericApp\CC2530DB\..\..\..\. /
//                          .\..\Components\osal\include\" -I                 /
//                          "E:\我的论文\2018-Applied                         /
//                          Sciences\SensorNetwork\ZStack-CC2530-2.5.1a\Proje /
//                          cts\zstack\Samples\GenericApp\CC2530DB\..\..\..\. /
//                          .\..\Components\services\saddr\" -I               /
//                          "E:\我的论文\2018-Applied                         /
//                          Sciences\SensorNetwork\ZStack-CC2530-2.5.1a\Proje /
//                          cts\zstack\Samples\GenericApp\CC2530DB\..\..\..\. /
//                          .\..\Components\services\sdata\" -I               /
//                          "E:\我的论文\2018-Applied                         /
//                          Sciences\SensorNetwork\ZStack-CC2530-2.5.1a\Proje /
//                          cts\zstack\Samples\GenericApp\CC2530DB\..\..\..\. /
//                          .\..\Components\stack\af\" -I                     /
//                          "E:\我的论文\2018-Applied                         /
//                          Sciences\SensorNetwork\ZStack-CC2530-2.5.1a\Proje /
//                          cts\zstack\Samples\GenericApp\CC2530DB\..\..\..\. /
//                          .\..\Components\stack\nwk\" -I                    /
//                          "E:\我的论文\2018-Applied                         /
//                          Sciences\SensorNetwork\ZStack-CC2530-2.5.1a\Proje /
//                          cts\zstack\Samples\GenericApp\CC2530DB\..\..\..\. /
//                          .\..\Components\stack\sapi\" -I                   /
//                          "E:\我的论文\2018-Applied                         /
//                          Sciences\SensorNetwork\ZStack-CC2530-2.5.1a\Proje /
//                          cts\zstack\Samples\GenericApp\CC2530DB\..\..\..\. /
//                          .\..\Components\stack\sec\" -I                    /
//                          "E:\我的论文\2018-Applied                         /
//                          Sciences\SensorNetwork\ZStack-CC2530-2.5.1a\Proje /
//                          cts\zstack\Samples\GenericApp\CC2530DB\..\..\..\. /
//                          .\..\Components\stack\sys\" -I                    /
//                          "E:\我的论文\2018-Applied                         /
//                          Sciences\SensorNetwork\ZStack-CC2530-2.5.1a\Proje /
//                          cts\zstack\Samples\GenericApp\CC2530DB\..\..\..\. /
//                          .\..\Components\stack\zdo\" -I                    /
//                          "E:\我的论文\2018-Applied                         /
//                          Sciences\SensorNetwork\ZStack-CC2530-2.5.1a\Proje /
//                          cts\zstack\Samples\GenericApp\CC2530DB\..\..\..\. /
//                          .\..\Components\zmac\" -I                         /
//                          "E:\我的论文\2018-Applied                         /
//                          Sciences\SensorNetwork\ZStack-CC2530-2.5.1a\Proje /
//                          cts\zstack\Samples\GenericApp\CC2530DB\..\..\..\. /
//                          .\..\Components\zmac\f8w\" -Ohz                   /
//                          --require_prototypes                              /
//    List file          =  E:\我的论文\2018-Applied                          /
//                          Sciences\SensorNetwork\ZStack-CC2530-2.5.1a\Proje /
//                          cts\zstack\Samples\GenericApp\CC2530DB\EndDeviceE /
//                          B\List\enddevice.s51                              /
//                                                                            /
//                                                                            /
///////////////////////////////////////////////////////////////////////////////

        NAME enddevice

        RTMODEL "__SystemLibrary", "CLib"
        RTMODEL "__calling_convention", "xdata_reentrant"
        RTMODEL "__code_model", "banked"
        RTMODEL "__core", "plain"
        RTMODEL "__data_model", "large"
        RTMODEL "__dptr_size", "16"
        RTMODEL "__extended_stack", "disabled"
        RTMODEL "__location_for_constants", "data"
        RTMODEL "__number_of_dptrs", "1"
        RTMODEL "__rt_version", "1"

        RSEG DOVERLAY:DATA:NOROOT(0)
        RSEG IOVERLAY:IDATA:NOROOT(0)
        RSEG ISTACK:IDATA:NOROOT(0)
        RSEG PSTACK:XDATA:NOROOT(0)
        RSEG XSTACK:XDATA:NOROOT(0)

        EXTERN ?ALLOC_XSTACK8
        EXTERN ?BANKED_ENTER_XDATA
        EXTERN ?BANKED_LEAVE_XDATA
        EXTERN ?BDISPATCH
        EXTERN ?BRET
        EXTERN ?DEALLOC_XSTACK8
        EXTERN ?PUSH_XSTACK_I_ONE
        EXTERN ?PUSH_XSTACK_I_THREE
        EXTERN ?PUSH_XSTACK_I_TWO
        EXTERN ?US_DIV_MOD
        EXTERN ?US_SWITCH_SPARSE
        EXTERN ?V0
        EXTERN ?XSP
        EXTERN ?XSTACK_DISP0_8
        EXTERN __INIT_XDATA_I
        EXTERN __INIT_XDATA_Z

        PUBLIC ??GenericApp_Init?relay
        FUNCTION ??GenericApp_Init?relay,0203H
        PUBLIC ??GenericApp_ProcessEvent?relay
        FUNCTION ??GenericApp_ProcessEvent?relay,0203H
        PUBLIC ??GenericApp_Send_GAN_Message?relay
        FUNCTION ??GenericApp_Send_GAN_Message?relay,0203H
        PUBLIC ??GenericApp_Send_Guangqiang_Message?relay
        FUNCTION ??GenericApp_Send_Guangqiang_Message?relay,0203H
        PUBLIC ??GenericApp_Send_Sensor_Message?relay
        FUNCTION ??GenericApp_Send_Sensor_Message?relay,0203H
        PUBLIC ??GenericApp_Send_rentihongwai_Message?relay
        FUNCTION ??GenericApp_Send_rentihongwai_Message?relay,0203H
        PUBLIC ??GenericApp_Send_wedu_Message?relay
        FUNCTION ??GenericApp_Send_wedu_Message?relay,0203H
        PUBLIC ??GenericApp_Send_wenshidu_Message?relay
        FUNCTION ??GenericApp_Send_wenshidu_Message?relay,0203H
        PUBLIC ??myApp_ReadGasLevel?relay
        FUNCTION ??myApp_ReadGasLevel?relay,0203H
        PUBLIC ??myApp_ReadLightLevel?relay
        FUNCTION ??myApp_ReadLightLevel?relay,0203H
        PUBWEAK ADCCFG
        PUBWEAK ADCCON1
        PUBWEAK ADCCON3
        PUBWEAK ADCH
        PUBLIC GenericApp_ClusterList
        PUBLIC GenericApp_DstAddr
        PUBLIC GenericApp_Init
        FUNCTION GenericApp_Init,021203H
        ARGFRAME XSTACK, 0, STACK
        LOCFRAME XSTACK, 9, STACK
        PUBLIC GenericApp_NwkState
        PUBLIC GenericApp_ProcessEvent
        FUNCTION GenericApp_ProcessEvent,0a1203H
        ARGFRAME XSTACK, 0, STACK
        LOCFRAME XSTACK, 32, STACK
        PUBLIC GenericApp_Send_GAN_Message
        FUNCTION GenericApp_Send_GAN_Message,021203H
        ARGFRAME XSTACK, 0, STACK
        LOCFRAME ISTACK, 1, STACK
        LOCFRAME XSTACK, 23, STACK
        PUBLIC GenericApp_Send_Guangqiang_Message
        FUNCTION GenericApp_Send_Guangqiang_Message,021203H
        ARGFRAME XSTACK, 0, STACK
        LOCFRAME ISTACK, 1, STACK
        LOCFRAME XSTACK, 22, STACK
        PUBLIC GenericApp_Send_Sensor_Message
        FUNCTION GenericApp_Send_Sensor_Message,021203H
        ARGFRAME XSTACK, 23, STACK
        ARGFRAME IOVERLAY, 0, STATIC
        ARGFRAME DOVERLAY, 0, STATIC
        LOCFRAME ISTACK, 1, STACK
        LOCFRAME XSTACK, 30, STACK
        PUBLIC GenericApp_Send_rentihongwai_Message
        FUNCTION GenericApp_Send_rentihongwai_Message,021203H
        ARGFRAME XSTACK, 0, STACK
        LOCFRAME ISTACK, 1, STACK
        LOCFRAME XSTACK, 21, STACK
        PUBLIC GenericApp_Send_wedu_Message
        FUNCTION GenericApp_Send_wedu_Message,021203H
        ARGFRAME XSTACK, 0, STACK
        LOCFRAME ISTACK, 1, STACK
        LOCFRAME XSTACK, 22, STACK
        PUBLIC GenericApp_Send_wenshidu_Message
        FUNCTION GenericApp_Send_wenshidu_Message,021203H
        ARGFRAME XSTACK, 0, STACK
        LOCFRAME ISTACK, 1, STACK
        LOCFRAME XSTACK, 29, STACK
        PUBLIC GenericApp_SimpleDesc
        PUBLIC GenericApp_TaskID
        PUBLIC GenericApp_TransID
        PUBLIC GenericApp_epDesc
        PUBWEAK _A_P0
        PUBLIC myApp_ReadGasLevel
        FUNCTION myApp_ReadGasLevel,0203H
        ARGFRAME XSTACK, 21, STACK
        ARGFRAME IOVERLAY, 0, STATIC
        ARGFRAME DOVERLAY, 0, STATIC
        PUBLIC myApp_ReadLightLevel
        FUNCTION myApp_ReadLightLevel,0203H
        ARGFRAME XSTACK, 21, STACK
        ARGFRAME IOVERLAY, 0, STATIC
        ARGFRAME DOVERLAY, 0, STATIC
        PUBLIC sensorID
        
        CFI Names cfiNames0
        CFI StackFrame CFA_SP SP IDATA
        CFI StackFrame CFA_PSP16 PSP16 XDATA
        CFI StackFrame CFA_XSP16 XSP16 XDATA
        CFI StaticOverlayFrame CFA_IOVERLAY IOVERLAY
        CFI StaticOverlayFrame CFA_DOVERLAY DOVERLAY
        CFI Resource `PSW.CY`:1, `B.BR0`:1, `B.BR1`:1, `B.BR2`:1, `B.BR3`:1
        CFI Resource `B.BR4`:1, `B.BR5`:1, `B.BR6`:1, `B.BR7`:1, `VB.BR8`:1
        CFI Resource `VB.BR9`:1, `VB.BR10`:1, `VB.BR11`:1, `VB.BR12`:1
        CFI Resource `VB.BR13`:1, `VB.BR14`:1, `VB.BR15`:1, VB:8, B:8, A:8
        CFI Resource PSW:8, DPL0:8, DPH0:8, R0:8, R1:8, R2:8, R3:8, R4:8, R5:8
        CFI Resource R6:8, R7:8, V0:8, V1:8, V2:8, V3:8, V4:8, V5:8, V6:8, V7:8
        CFI Resource V8:8, V9:8, V10:8, V11:8, V12:8, V13:8, V14:8, V15:8, SP:8
        CFI Resource PSPH:8, PSPL:8, PSP16:16, XSPH:8, XSPL:8, XSP16:16
        CFI VirtualResource ?RET:24
        CFI Resource ?BRET_EXT:8
        CFI VirtualResource ?RET_HIGH:8, ?RET_LOW:8
        CFI ResourceParts PSP16 PSPH, PSPL
        CFI ResourceParts XSP16 XSPH, XSPL
        CFI ResourceParts ?RET ?BRET_EXT, ?RET_HIGH, ?RET_LOW
        CFI EndNames cfiNames0
        
        CFI Common cfiCommon0 Using cfiNames0
        CFI CodeAlign 1
        CFI DataAlign -1
        CFI ReturnAddress ?RET CODE
        CFI CFA_DOVERLAY Used
        CFI CFA_IOVERLAY Used
        CFI CFA_SP SP+-3
        CFI CFA_PSP16 PSP16+0
        CFI CFA_XSP16 XSP16+0
        CFI `PSW.CY` SameValue
        CFI `B.BR0` SameValue
        CFI `B.BR1` SameValue
        CFI `B.BR2` SameValue
        CFI `B.BR3` SameValue
        CFI `B.BR4` SameValue
        CFI `B.BR5` SameValue
        CFI `B.BR6` SameValue
        CFI `B.BR7` SameValue
        CFI `VB.BR8` SameValue
        CFI `VB.BR9` SameValue
        CFI `VB.BR10` SameValue
        CFI `VB.BR11` SameValue
        CFI `VB.BR12` SameValue
        CFI `VB.BR13` SameValue
        CFI `VB.BR14` SameValue
        CFI `VB.BR15` SameValue
        CFI VB SameValue
        CFI B Undefined
        CFI A Undefined
        CFI PSW SameValue
        CFI DPL0 SameValue
        CFI DPH0 SameValue
        CFI R0 Undefined
        CFI R1 Undefined
        CFI R2 Undefined
        CFI R3 Undefined
        CFI R4 Undefined
        CFI R5 Undefined
        CFI R6 SameValue
        CFI R7 SameValue
        CFI V0 SameValue
        CFI V1 SameValue
        CFI V2 SameValue
        CFI V3 SameValue
        CFI V4 SameValue
        CFI V5 SameValue
        CFI V6 SameValue
        CFI V7 SameValue
        CFI V8 SameValue
        CFI V9 SameValue
        CFI V10 SameValue
        CFI V11 SameValue
        CFI V12 SameValue
        CFI V13 SameValue
        CFI V14 SameValue
        CFI V15 SameValue
        CFI PSPH Undefined
        CFI PSPL Undefined
        CFI XSPH Undefined
        CFI XSPL Undefined
        CFI ?RET Concat
        CFI ?BRET_EXT Frame(CFA_SP, 3)
        CFI ?RET_HIGH Frame(CFA_SP, 2)
        CFI ?RET_LOW Frame(CFA_SP, 1)
        CFI EndCommon cfiCommon0
        
        
        CFI Common cfiCommon1 Using cfiNames0
        CFI CodeAlign 1
        CFI DataAlign -1
        CFI ReturnAddress ?RET CODE
        CFI CFA_DOVERLAY Used
        CFI CFA_IOVERLAY Used
        CFI CFA_SP SP+-2
        CFI CFA_PSP16 PSP16+0
        CFI CFA_XSP16 XSP16+0
        CFI `PSW.CY` SameValue
        CFI `B.BR0` SameValue
        CFI `B.BR1` SameValue
        CFI `B.BR2` SameValue
        CFI `B.BR3` SameValue
        CFI `B.BR4` SameValue
        CFI `B.BR5` SameValue
        CFI `B.BR6` SameValue
        CFI `B.BR7` SameValue
        CFI `VB.BR8` SameValue
        CFI `VB.BR9` SameValue
        CFI `VB.BR10` SameValue
        CFI `VB.BR11` SameValue
        CFI `VB.BR12` SameValue
        CFI `VB.BR13` SameValue
        CFI `VB.BR14` SameValue
        CFI `VB.BR15` SameValue
        CFI VB SameValue
        CFI B SameValue
        CFI A SameValue
        CFI PSW SameValue
        CFI DPL0 SameValue
        CFI DPH0 SameValue
        CFI R0 SameValue
        CFI R1 SameValue
        CFI R2 SameValue
        CFI R3 SameValue
        CFI R4 SameValue
        CFI R5 SameValue
        CFI R6 SameValue
        CFI R7 SameValue
        CFI V0 SameValue
        CFI V1 SameValue
        CFI V2 SameValue
        CFI V3 SameValue
        CFI V4 SameValue
        CFI V5 SameValue
        CFI V6 SameValue
        CFI V7 SameValue
        CFI V8 SameValue
        CFI V9 SameValue
        CFI V10 SameValue
        CFI V11 SameValue
        CFI V12 SameValue
        CFI V13 SameValue
        CFI V14 SameValue
        CFI V15 SameValue
        CFI PSPH Undefined
        CFI PSPL Undefined
        CFI XSPH Undefined
        CFI XSPL Undefined
        CFI ?RET Concat
        CFI ?BRET_EXT SameValue
        CFI ?RET_HIGH Frame(CFA_SP, 2)
        CFI ?RET_LOW Frame(CFA_SP, 1)
        CFI EndCommon cfiCommon1
        
afRegister          SYMBOL "afRegister"
RegisterForKeys     SYMBOL "RegisterForKeys"
HalLcdWriteString   SYMBOL "HalLcdWriteString"
ZDO_RegisterForZDOMsg SYMBOL "ZDO_RegisterForZDOMsg"
osal_msg_receive    SYMBOL "osal_msg_receive"
osal_start_timerEx  SYMBOL "osal_start_timerEx"
osal_msg_deallocate SYMBOL "osal_msg_deallocate"
ZDO_ParseEPListRsp  SYMBOL "ZDO_ParseEPListRsp"
HalLedSet           SYMBOL "HalLedSet"
osal_mem_free       SYMBOL "osal_mem_free"
NLME_GetShortAddr   SYMBOL "NLME_GetShortAddr"
ZDP_EndDeviceBindReq SYMBOL "ZDP_EndDeviceBindReq"
ZDP_MatchDescReq    SYMBOL "ZDP_MatchDescReq"
DHT11               SYMBOL "DHT11"
AF_DataRequest      SYMBOL "AF_DataRequest"
osal_memcpy         SYMBOL "osal_memcpy"
ReadDs18B20         SYMBOL "ReadDs18B20"
??AF_DataRequest?relay SYMBOL "?relay", AF_DataRequest
??DHT11?relay       SYMBOL "?relay", DHT11
??HalLcdWriteString?relay SYMBOL "?relay", HalLcdWriteString
??HalLedSet?relay   SYMBOL "?relay", HalLedSet
??NLME_GetShortAddr?relay SYMBOL "?relay", NLME_GetShortAddr
??ReadDs18B20?relay SYMBOL "?relay", ReadDs18B20
??RegisterForKeys?relay SYMBOL "?relay", RegisterForKeys
??ZDO_ParseEPListRsp?relay SYMBOL "?relay", ZDO_ParseEPListRsp
??ZDO_RegisterForZDOMsg?relay SYMBOL "?relay", ZDO_RegisterForZDOMsg
??ZDP_EndDeviceBindReq?relay SYMBOL "?relay", ZDP_EndDeviceBindReq
??ZDP_MatchDescReq?relay SYMBOL "?relay", ZDP_MatchDescReq
??afRegister?relay  SYMBOL "?relay", afRegister
??osal_mem_free?relay SYMBOL "?relay", osal_mem_free
??osal_memcpy?relay SYMBOL "?relay", osal_memcpy
??osal_msg_deallocate?relay SYMBOL "?relay", osal_msg_deallocate
??osal_msg_receive?relay SYMBOL "?relay", osal_msg_receive
??osal_start_timerEx?relay SYMBOL "?relay", osal_start_timerEx
GenericApp_Init     SYMBOL "GenericApp_Init"
??GenericApp_Init?relay SYMBOL "?relay", GenericApp_Init
GenericApp_ProcessEvent SYMBOL "GenericApp_ProcessEvent"
??GenericApp_ProcessEvent?relay SYMBOL "?relay", GenericApp_ProcessEvent
GenericApp_Send_GAN_Message SYMBOL "GenericApp_Send_GAN_Message"
??GenericApp_Send_GAN_Message?relay SYMBOL "?relay", GenericApp_Send_GAN_Message
GenericApp_Send_Guangqiang_Message SYMBOL "GenericApp_Send_Guangqiang_Message"
??GenericApp_Send_Guangqiang_Message?relay SYMBOL "?relay", GenericApp_Send_Guangqiang_Message
GenericApp_Send_Sensor_Message SYMBOL "GenericApp_Send_Sensor_Message"
??GenericApp_Send_Sensor_Message?relay SYMBOL "?relay", GenericApp_Send_Sensor_Message
GenericApp_Send_rentihongwai_Message SYMBOL "GenericApp_Send_rentihongwai_Message"
??GenericApp_Send_rentihongwai_Message?relay SYMBOL "?relay", GenericApp_Send_rentihongwai_Message
GenericApp_Send_wedu_Message SYMBOL "GenericApp_Send_wedu_Message"
??GenericApp_Send_wedu_Message?relay SYMBOL "?relay", GenericApp_Send_wedu_Message
GenericApp_Send_wenshidu_Message SYMBOL "GenericApp_Send_wenshidu_Message"
??GenericApp_Send_wenshidu_Message?relay SYMBOL "?relay", GenericApp_Send_wenshidu_Message
myApp_ReadGasLevel  SYMBOL "myApp_ReadGasLevel"
??myApp_ReadGasLevel?relay SYMBOL "?relay", myApp_ReadGasLevel
myApp_ReadLightLevel SYMBOL "myApp_ReadLightLevel"
??myApp_ReadLightLevel?relay SYMBOL "?relay", myApp_ReadLightLevel

        EXTERN afRegister
        FUNCTION afRegister,0202H
        ARGFRAME ISTACK, 0, STACK
        ARGFRAME PSTACK, 0, STACK
        ARGFRAME XSTACK, 9, STACK
        ARGFRAME IOVERLAY, 0, STATIC
        ARGFRAME DOVERLAY, 0, STATIC
        EXTERN RegisterForKeys
        FUNCTION RegisterForKeys,0202H
        ARGFRAME ISTACK, 0, STACK
        ARGFRAME PSTACK, 0, STACK
        ARGFRAME XSTACK, 9, STACK
        ARGFRAME IOVERLAY, 0, STATIC
        ARGFRAME DOVERLAY, 0, STATIC
        EXTERN HalLcdWriteString
        FUNCTION HalLcdWriteString,0202H
        ARGFRAME ISTACK, 0, STACK
        ARGFRAME PSTACK, 0, STACK
        ARGFRAME XSTACK, 9, STACK
        ARGFRAME IOVERLAY, 0, STATIC
        ARGFRAME DOVERLAY, 0, STATIC
        EXTERN ZDO_RegisterForZDOMsg
        FUNCTION ZDO_RegisterForZDOMsg,0202H
        ARGFRAME ISTACK, 0, STACK
        ARGFRAME PSTACK, 0, STACK
        ARGFRAME XSTACK, 9, STACK
        ARGFRAME IOVERLAY, 0, STATIC
        ARGFRAME DOVERLAY, 0, STATIC
        EXTERN osal_msg_receive
        FUNCTION osal_msg_receive,0202H
        ARGFRAME ISTACK, 0, STACK
        ARGFRAME PSTACK, 0, STACK
        ARGFRAME XSTACK, 23, STACK
        ARGFRAME IOVERLAY, 0, STATIC
        ARGFRAME DOVERLAY, 0, STATIC
        EXTERN osal_start_timerEx
        FUNCTION osal_start_timerEx,0202H
        ARGFRAME ISTACK, 0, STACK
        ARGFRAME PSTACK, 0, STACK
        ARGFRAME XSTACK, 23, STACK
        ARGFRAME IOVERLAY, 0, STATIC
        ARGFRAME DOVERLAY, 0, STATIC
        EXTERN osal_msg_deallocate
        FUNCTION osal_msg_deallocate,0202H
        ARGFRAME ISTACK, 0, STACK
        ARGFRAME PSTACK, 0, STACK
        ARGFRAME XSTACK, 23, STACK
        ARGFRAME IOVERLAY, 0, STATIC
        ARGFRAME DOVERLAY, 0, STATIC
        EXTERN ZDO_ParseEPListRsp
        FUNCTION ZDO_ParseEPListRsp,0202H
        ARGFRAME ISTACK, 0, STACK
        ARGFRAME PSTACK, 0, STACK
        ARGFRAME XSTACK, 23, STACK
        ARGFRAME IOVERLAY, 0, STATIC
        ARGFRAME DOVERLAY, 0, STATIC
        EXTERN HalLedSet
        FUNCTION HalLedSet,0202H
        ARGFRAME ISTACK, 0, STACK
        ARGFRAME PSTACK, 0, STACK
        ARGFRAME XSTACK, 23, STACK
        ARGFRAME IOVERLAY, 0, STATIC
        ARGFRAME DOVERLAY, 0, STATIC
        EXTERN osal_mem_free
        FUNCTION osal_mem_free,0202H
        ARGFRAME ISTACK, 0, STACK
        ARGFRAME PSTACK, 0, STACK
        ARGFRAME XSTACK, 23, STACK
        ARGFRAME IOVERLAY, 0, STATIC
        ARGFRAME DOVERLAY, 0, STATIC
        EXTERN NLME_GetShortAddr
        FUNCTION NLME_GetShortAddr,0202H
        ARGFRAME ISTACK, 0, STACK
        ARGFRAME PSTACK, 0, STACK
        ARGFRAME XSTACK, 23, STACK
        ARGFRAME IOVERLAY, 0, STATIC
        ARGFRAME DOVERLAY, 0, STATIC
        EXTERN ZDP_EndDeviceBindReq
        FUNCTION ZDP_EndDeviceBindReq,0202H
        ARGFRAME ISTACK, 0, STACK
        ARGFRAME PSTACK, 0, STACK
        ARGFRAME XSTACK, 32, STACK
        ARGFRAME IOVERLAY, 0, STATIC
        ARGFRAME DOVERLAY, 0, STATIC
        EXTERN ZDP_MatchDescReq
        FUNCTION ZDP_MatchDescReq,0202H
        ARGFRAME ISTACK, 0, STACK
        ARGFRAME PSTACK, 0, STACK
        ARGFRAME XSTACK, 31, STACK
        ARGFRAME IOVERLAY, 0, STATIC
        ARGFRAME DOVERLAY, 0, STATIC
        EXTERN DHT11
        FUNCTION DHT11,0202H
        ARGFRAME ISTACK, 0, STACK
        ARGFRAME PSTACK, 0, STACK
        ARGFRAME XSTACK, 21, STACK
        ARGFRAME IOVERLAY, 0, STATIC
        ARGFRAME DOVERLAY, 0, STATIC
        EXTERN AF_DataRequest
        FUNCTION AF_DataRequest,0202H
        ARGFRAME ISTACK, 0, STACK
        ARGFRAME PSTACK, 0, STACK
        ARGFRAME XSTACK, 30, STACK
        ARGFRAME IOVERLAY, 0, STATIC
        ARGFRAME DOVERLAY, 0, STATIC
        EXTERN osal_memcpy
        FUNCTION osal_memcpy,0202H
        ARGFRAME ISTACK, 0, STACK
        ARGFRAME PSTACK, 0, STACK
        ARGFRAME XSTACK, 23, STACK
        ARGFRAME IOVERLAY, 0, STATIC
        ARGFRAME DOVERLAY, 0, STATIC
        EXTERN ReadDs18B20
        FUNCTION ReadDs18B20,0202H
        ARGFRAME ISTACK, 0, STACK
        ARGFRAME PSTACK, 0, STACK
        ARGFRAME XSTACK, 13, STACK
        ARGFRAME IOVERLAY, 0, STATIC
        ARGFRAME DOVERLAY, 0, STATIC
        EXTERN ??AF_DataRequest?relay
        FUNCTION ??AF_DataRequest?relay,00H
        EXTERN ??DHT11?relay
        FUNCTION ??DHT11?relay,00H
        EXTERN ??HalLcdWriteString?relay
        FUNCTION ??HalLcdWriteString?relay,00H
        EXTERN ??HalLedSet?relay
        FUNCTION ??HalLedSet?relay,00H
        EXTERN ??NLME_GetShortAddr?relay
        FUNCTION ??NLME_GetShortAddr?relay,00H
        EXTERN ??ReadDs18B20?relay
        FUNCTION ??ReadDs18B20?relay,00H
        EXTERN ??RegisterForKeys?relay
        FUNCTION ??RegisterForKeys?relay,00H
        EXTERN ??ZDO_ParseEPListRsp?relay
        FUNCTION ??ZDO_ParseEPListRsp?relay,00H
        EXTERN ??ZDO_RegisterForZDOMsg?relay
        FUNCTION ??ZDO_RegisterForZDOMsg?relay,00H
        EXTERN ??ZDP_EndDeviceBindReq?relay
        FUNCTION ??ZDP_EndDeviceBindReq?relay,00H
        EXTERN ??ZDP_MatchDescReq?relay
        FUNCTION ??ZDP_MatchDescReq?relay,00H
        EXTERN ??afRegister?relay
        FUNCTION ??afRegister?relay,00H
        EXTERN ??osal_mem_free?relay
        FUNCTION ??osal_mem_free?relay,00H
        EXTERN ??osal_memcpy?relay
        FUNCTION ??osal_memcpy?relay,00H
        EXTERN ??osal_msg_deallocate?relay
        FUNCTION ??osal_msg_deallocate?relay,00H
        EXTERN ??osal_msg_receive?relay
        FUNCTION ??osal_msg_receive?relay,00H
        EXTERN ??osal_start_timerEx?relay
        FUNCTION ??osal_start_timerEx?relay,00H
        EXTERN shidu_ge
        EXTERN shidu_shi
        EXTERN wendu_ge
        EXTERN wendu_shi

// E:\我的论文\2018-Applied Sciences\SensorNetwork\ZStack-CC2530-2.5.1a\Projects\zstack\Samples\GenericApp\Source\enddevice.c
//    1 /******************************************************************************
//    2   Filename:       GenericApp.c
//    3   Revised:        $Date: 2012-03-07 01:04:58 -0800 (Wed, 07 Mar 2012) $
//    4   Revision:       $Revision: 29656 $
//    5 
//    6   Description:    Generic Application (no Profile).
//    7 
//    8 
//    9   Copyright 2004-2012 Texas Instruments Incorporated. All rights reserved.
//   10 
//   11   IMPORTANT: Your use of this Software is limited to those specific rights
//   12   granted under the terms of a software license agreement between the user
//   13   who downloaded the software, his/her employer (which must be your employer)
//   14   and Texas Instruments Incorporated (the "License"). You may not use this
//   15   Software unless you agree to abide by the terms of the License. The License
//   16   limits your use, and you acknowledge, that the Software may not be modified,
//   17   copied or distributed unless embedded on a Texas Instruments microcontroller
//   18   or used solely and exclusively in conjunction with a Texas Instruments radio
//   19   frequency transceiver, which is integrated into your product. Other than for
//   20   the foregoing purpose, you may not use, reproduce, copy, prepare derivative
//   21   works of, modify, distribute, perform, display or sell this Software and/or
//   22   its documentation for any purpose.
//   23 
//   24   YOU FURTHER ACKNOWLEDGE AND AGREE THAT THE SOFTWARE AND DOCUMENTATION ARE
//   25   PROVIDED AS IS?WITHOUT WARRANTY OF ANY KIND, EITHER EXPRESS OR IMPLIED,
//   26   INCLUDING WITHOUT LIMITATION, ANY WARRANTY OF MERCHANTABILITY, TITLE,
//   27   NON-INFRINGEMENT AND FITNESS FOR A PARTICULAR PURPOSE. IN NO EVENT SHALL
//   28   TEXAS INSTRUMENTS OR ITS LICENSORS BE LIABLE OR OBLIGATED UNDER CONTRACT,
//   29   NEGLIGENCE, STRICT LIABILITY, CONTRIBUTION, BREACH OF WARRANTY, OR OTHER
//   30   LEGAL EQUITABLE THEORY ANY DIRECT OR INDIRECT DAMAGES OR EXPENSES
//   31   INCLUDING BUT NOT LIMITED TO ANY INCIDENTAL, SPECIAL, INDIRECT, PUNITIVE
//   32   OR CONSEQUENTIAL DAMAGES, LOST PROFITS OR LOST DATA, COST OF PROCUREMENT
//   33   OF SUBSTITUTE GOODS, TECHNOLOGY, SERVICES, OR ANY CLAIMS BY THIRD PARTIES
//   34   (INCLUDING BUT NOT LIMITED TO ANY DEFENSE THEREOF), OR OTHER SIMILAR COSTS.
//   35 
//   36   Should you have any questions regarding your right to use this Software,
//   37   contact Texas Instruments Incorporated at www.TI.com.
//   38 ******************************************************************************/
//   39 
//   40 /*********************************************************************
//   41   This application isn't intended to do anything useful, it is
//   42   intended to be a simple example of an application's structure.
//   43 
//   44   This application sends "Hello World" to another "Generic"
//   45   application every 5 seconds.  The application will also
//   46   receives "Hello World" packets.
//   47 
//   48   The "Hello World" messages are sent/received as MSG type message.
//   49 
//   50   This applications doesn't have a profile, so it handles everything
//   51   directly - itself.
//   52 
//   53   Key control:
//   54     SW1:
//   55     SW2:  initiates end device binding
//   56     SW3:
//   57     SW4:  initiates a match description request
//   58 *********************************************************************/
//   59 
//   60 /*********************************************************************
//   61  * INCLUDES
//   62  */
//   63 #include "OSAL.h"
//   64 #include "AF.h"
//   65 #include "ZDApp.h"
//   66 #include "ZDObject.h"
//   67 #include "ZDProfile.h"
//   68 
//   69 #include "GenericApp.h"
//   70 #include "DebugTrace.h"
//   71 
//   72 #if !defined( WIN32 )
//   73   #include "OnBoard.h"

        ASEGN SFR_AN:DATA:NOROOT,080H
// union <unnamed> volatile __sfr _A_P0
_A_P0:
        DATA8
        DS 1

        ASEGN SFR_AN:DATA:NOROOT,0b4H
// unsigned char volatile __sfr ADCCON1
ADCCON1:
        DATA8
        DS 1

        ASEGN SFR_AN:DATA:NOROOT,0b6H
// unsigned char volatile __sfr ADCCON3
ADCCON3:
        DATA8
        DS 1

        ASEGN SFR_AN:DATA:NOROOT,0bbH
// unsigned char volatile __sfr ADCH
ADCH:
        DATA8
        DS 1

        ASEGN SFR_AN:DATA:NOROOT,0f2H
// unsigned char volatile __sfr ADCCFG
ADCCFG:
        DATA8
        DS 1
//   74 #endif
//   75 
//   76 /* HAL */
//   77 #include "hal_lcd.h"
//   78 #include "hal_led.h"
//   79 #include "hal_key.h"
//   80 #include "hal_uart.h"
//   81 
//   82 #include "DHT11.h"
//   83 #include "ds18b20.h"
//   84 
//   85 /* RTOS */
//   86 #if defined( IAR_ARMCM3_LM )
//   87 #include "RTOS_App.h"
//   88 #endif  
//   89 
//   90 /*********************************************************************
//   91  * MACROS
//   92  */
//   93 
//   94 /*********************************************************************
//   95  * CONSTANTS
//   96  */
//   97 
//   98 /*********************************************************************
//   99  * TYPEDEFS
//  100  */
//  101 
//  102 /*********************************************************************
//  103  * GLOBAL VARIABLES
//  104  */
//  105 // This list should be filled with Application specific Cluster IDs.

        RSEG XDATA_ROM_C:CONST:REORDER:NOROOT(0)
        DATA8
//  106 const cId_t GenericApp_ClusterList[GENERICAPP_MAX_CLUSTERS] =
GenericApp_ClusterList:
        DATA16
        DW 1
        DW 0
        DW 0
        DW 0
//  107 {
//  108   GENERICAPP_CLUSTERID
//  109 };
//  110 

        RSEG XDATA_ROM_C:CONST:REORDER:NOROOT(0)
        DATA8
//  111 const SimpleDescriptionFormat_t GenericApp_SimpleDesc =
GenericApp_SimpleDesc:
        DB 10
        DATA16
        DW 3844
        DW 1
        DATA8
        DB 0
        DB 4
        DATA16
        DW GenericApp_ClusterList
        DATA8
        DB 4
        DATA16
        DW GenericApp_ClusterList
//  112 {
//  113   GENERICAPP_ENDPOINT,              //  int Endpoint;
//  114   GENERICAPP_PROFID,                //  uint16 AppProfId[2];
//  115   GENERICAPP_DEVICEID,              //  uint16 AppDeviceId[2];
//  116   GENERICAPP_DEVICE_VERSION,        //  int   AppDevVer:4;
//  117   GENERICAPP_FLAGS,                 //  int   AppFlags:4;
//  118   GENERICAPP_MAX_CLUSTERS,          //  byte  AppNumInClusters;
//  119   (cId_t *)GenericApp_ClusterList,  //  byte *pAppInClusterList;
//  120   GENERICAPP_MAX_CLUSTERS,          //  byte  AppNumInClusters;
//  121   (cId_t *)GenericApp_ClusterList   //  byte *pAppInClusterList;
//  122 };
//  123 
//  124 // This is the Endpoint/Interface description.  It is defined here, but
//  125 // filled-in in GenericApp_Init().  Another way to go would be to fill
//  126 // in the structure here and make it a "const" (in code space).  The
//  127 // way it's defined in this sample app it is define in RAM.

        RSEG XDATA_Z:XDATA:NOROOT(0)
        DATA8
//  128 endPointDesc_t GenericApp_epDesc;
GenericApp_epDesc:
        DS 6
        REQUIRE __INIT_XDATA_Z
//  129 
//  130 /*********************************************************************
//  131  * EXTERNAL VARIABLES
//  132  */
//  133 
//  134 /*********************************************************************
//  135  * EXTERNAL FUNCTIONS
//  136  */
//  137 
//  138 /*********************************************************************
//  139  * LOCAL VARIABLES
//  140  */

        RSEG XDATA_Z:XDATA:NOROOT(0)
        DATA8
//  141 byte GenericApp_TaskID;   // Task ID for internal task/event processing
GenericApp_TaskID:
        DS 1
        REQUIRE __INIT_XDATA_Z
//  142                           // This variable will be received when
//  143                           // GenericApp_Init() is called.

        RSEG XDATA_Z:XDATA:NOROOT(0)
        DATA8
//  144 devStates_t GenericApp_NwkState;
GenericApp_NwkState:
        DS 1
        REQUIRE __INIT_XDATA_Z
//  145 
//  146 

        RSEG XDATA_Z:XDATA:NOROOT(0)
        DATA8
//  147 byte GenericApp_TransID;  // This is the unique message ID (counter)
GenericApp_TransID:
        DS 1
        REQUIRE __INIT_XDATA_Z
//  148 

        RSEG XDATA_Z:XDATA:NOROOT(0)
        DATA8
//  149 afAddrType_t GenericApp_DstAddr;
GenericApp_DstAddr:
        DS 12
        REQUIRE __INIT_XDATA_Z
//  150 

        RSEG XDATA_I:XDATA:NOROOT(0)
//  151 char sensorID = '1';
sensorID:
        DATA8
        DS 1
        REQUIRE `?<Initializer for sensorID>`
        REQUIRE __INIT_XDATA_I
//  152 
//  153 /*********************************************************************
//  154  * LOCAL FUNCTIONS
//  155  */
//  156 static void GenericApp_ProcessZDOMsgs( zdoIncomingMsg_t *inMsg );
//  157 static void GenericApp_HandleKeys( byte shift, byte keys );
//  158 static void GenericApp_MessageMSGCB( afIncomingMSGPacket_t *pckt );
//  159 static void GenericApp_SendTheMessage( void );
//  160 
//  161 void GenericApp_Send_wenshidu_Message( void );//我加的，温湿度无线发送函数
//  162 
//  163 void GenericApp_Send_Guangqiang_Message(void);//我加的，光敏无线发送函数
//  164 uint16 myApp_ReadLightLevel( void );//我加的，读取光敏值函数
//  165 
//  166 void GenericApp_Send_GAN_Message( void );//我加的，烟雾无线发送函数
//  167 uint16 myApp_ReadGasLevel( void );//我家的，读取烟雾值
//  168 
//  169 void GenericApp_Send_wedu_Message( void );//我加的，温度无线发送函数
//  170 
//  171 void GenericApp_Send_rentihongwai_Message( void );//我加的，人体红外无线发送函数
//  172 
//  173 void GenericApp_Send_Sensor_Message( void );
//  174 
//  175 #if defined( IAR_ARMCM3_LM )
//  176 static void GenericApp_ProcessRtosMessage( void );
//  177 #endif
//  178 
//  179 /*********************************************************************
//  180  * NETWORK LAYER CALLBACKS
//  181  */
//  182 
//  183 /*********************************************************************
//  184  * PUBLIC FUNCTIONS
//  185  */
//  186 
//  187 /*********************************************************************
//  188  * @fn      GenericApp_Init
//  189  *
//  190  * @brief   Initialization function for the Generic App Task.
//  191  *          This is called during initialization and should contain
//  192  *          any application specific initialization (ie. hardware
//  193  *          initialization/setup, table initialization, power up
//  194  *          notificaiton ... ).
//  195  *
//  196  * @param   task_id - the ID assigned by OSAL.  This ID should be
//  197  *                    used to send messages and set timers.
//  198  *
//  199  * @return  none
//  200  */

        RSEG BANKED_CODE:CODE:NOROOT(0)
//  201 void GenericApp_Init( uint8 task_id )
GenericApp_Init:
        CFI Block cfiBlock0 Using cfiCommon0
        CFI Function GenericApp_Init
        CODE
//  202 {
        FUNCALL GenericApp_Init, afRegister
        LOCFRAME ISTACK, 0, STACK
        LOCFRAME PSTACK, 0, STACK
        LOCFRAME XSTACK, 9, STACK
        LOCFRAME IOVERLAY, 0, STATIC
        LOCFRAME DOVERLAY, 0, STATIC
        ARGFRAME ISTACK, 0, STACK
        ARGFRAME PSTACK, 0, STACK
        ARGFRAME XSTACK, 9, STACK
        ARGFRAME IOVERLAY, 0, STATIC
        ARGFRAME DOVERLAY, 0, STATIC
        FUNCALL GenericApp_Init, RegisterForKeys
        LOCFRAME ISTACK, 0, STACK
        LOCFRAME PSTACK, 0, STACK
        LOCFRAME XSTACK, 9, STACK
        LOCFRAME IOVERLAY, 0, STATIC
        LOCFRAME DOVERLAY, 0, STATIC
        ARGFRAME ISTACK, 0, STACK
        ARGFRAME PSTACK, 0, STACK
        ARGFRAME XSTACK, 9, STACK
        ARGFRAME IOVERLAY, 0, STATIC
        ARGFRAME DOVERLAY, 0, STATIC
        FUNCALL GenericApp_Init, HalLcdWriteString
        LOCFRAME ISTACK, 0, STACK
        LOCFRAME PSTACK, 0, STACK
        LOCFRAME XSTACK, 9, STACK
        LOCFRAME IOVERLAY, 0, STATIC
        LOCFRAME DOVERLAY, 0, STATIC
        ARGFRAME ISTACK, 0, STACK
        ARGFRAME PSTACK, 0, STACK
        ARGFRAME XSTACK, 9, STACK
        ARGFRAME IOVERLAY, 0, STATIC
        ARGFRAME DOVERLAY, 0, STATIC
        FUNCALL GenericApp_Init, ZDO_RegisterForZDOMsg
        LOCFRAME ISTACK, 0, STACK
        LOCFRAME PSTACK, 0, STACK
        LOCFRAME XSTACK, 9, STACK
        LOCFRAME IOVERLAY, 0, STATIC
        LOCFRAME DOVERLAY, 0, STATIC
        ARGFRAME ISTACK, 0, STACK
        ARGFRAME PSTACK, 0, STACK
        ARGFRAME XSTACK, 9, STACK
        ARGFRAME IOVERLAY, 0, STATIC
        ARGFRAME DOVERLAY, 0, STATIC
        FUNCALL GenericApp_Init, ZDO_RegisterForZDOMsg
        LOCFRAME ISTACK, 0, STACK
        LOCFRAME PSTACK, 0, STACK
        LOCFRAME XSTACK, 9, STACK
        LOCFRAME IOVERLAY, 0, STATIC
        LOCFRAME DOVERLAY, 0, STATIC
        ARGFRAME ISTACK, 0, STACK
        ARGFRAME PSTACK, 0, STACK
        ARGFRAME XSTACK, 9, STACK
        ARGFRAME IOVERLAY, 0, STATIC
        ARGFRAME DOVERLAY, 0, STATIC
        MOV     A,#-0x9
        LCALL   ?BANKED_ENTER_XDATA
        CFI DPH0 load(1, XDATA, add(CFA_XSP16, literal(-1)))
        CFI DPL0 load(1, XDATA, add(CFA_XSP16, literal(-2)))
        CFI ?BRET_EXT load(1, XDATA, add(CFA_XSP16, literal(-3)))
        CFI ?RET_HIGH load(1, XDATA, add(CFA_XSP16, literal(-4)))
        CFI ?RET_LOW load(1, XDATA, add(CFA_XSP16, literal(-5)))
        CFI R7 load(1, XDATA, add(CFA_XSP16, literal(-6)))
        CFI V0 load(1, XDATA, add(CFA_XSP16, literal(-7)))
        CFI VB load(1, XDATA, add(CFA_XSP16, literal(-8)))
        CFI R6 load(1, XDATA, add(CFA_XSP16, literal(-9)))
        CFI CFA_SP SP+0
        CFI CFA_XSP16 add(XSP16, 9)
        ; Saved register size: 9
        ; Auto size: 0
        MOV     A,R1
//  203   GenericApp_TaskID = task_id;
        MOV     DPTR,#GenericApp_TaskID
        MOVX    @DPTR,A
//  204   GenericApp_NwkState = DEV_INIT;
        MOV     DPTR,#GenericApp_NwkState
        MOV     A,#0x1
        MOVX    @DPTR,A
//  205   GenericApp_TransID = 0;
        MOV     DPTR,#GenericApp_TransID
        CLR     A
        MOVX    @DPTR,A
//  206   
//  207   P0_5 = 0;
        CLR     0x80.5
//  208 
//  209   // Device hardware initialization can be added here or in main() (Zmain.c).
//  210   // If the hardware is application specific - add it here.
//  211   // If the hardware is other parts of the device add it in main().
//  212 
//  213   GenericApp_DstAddr.addrMode = (afAddrMode_t)Addr16Bit;
        MOV     DPTR,#GenericApp_DstAddr + 8
        MOV     A,#0x2
        MOVX    @DPTR,A
//  214   GenericApp_DstAddr.endPoint = GENERICAPP_ENDPOINT;
        INC     DPTR
        MOV     A,#0xa
        MOVX    @DPTR,A
//  215   GenericApp_DstAddr.addr.shortAddr = 0x0000;
        MOV     DPTR,#GenericApp_DstAddr
        CLR     A
        MOVX    @DPTR,A
        INC     DPTR
        MOVX    @DPTR,A
//  216 
//  217   // Fill out the endpoint description.
//  218   GenericApp_epDesc.endPoint = GENERICAPP_ENDPOINT;
        MOV     DPTR,#GenericApp_epDesc
        MOV     A,#0xa
        MOVX    @DPTR,A
//  219   GenericApp_epDesc.task_id = &GenericApp_TaskID;
        INC     DPTR
        MOV     A,#GenericApp_TaskID & 0xff
        MOVX    @DPTR,A
        INC     DPTR
        MOV     A,#(GenericApp_TaskID >> 8) & 0xff
        MOVX    @DPTR,A
//  220   GenericApp_epDesc.simpleDesc
//  221             = (SimpleDescriptionFormat_t *)&GenericApp_SimpleDesc;
        INC     DPTR
        MOV     A,#GenericApp_SimpleDesc & 0xff
        MOVX    @DPTR,A
        INC     DPTR
        MOV     A,#(GenericApp_SimpleDesc >> 8) & 0xff
        MOVX    @DPTR,A
//  222   GenericApp_epDesc.latencyReq = noLatencyReqs;
        INC     DPTR
        CLR     A
        MOVX    @DPTR,A
//  223 
//  224   // Register the endpoint description with the AF
//  225   afRegister( &GenericApp_epDesc );
        ; Setup parameters for call to function afRegister
        MOV     R2,#GenericApp_epDesc & 0xff
        MOV     R3,#(GenericApp_epDesc >> 8) & 0xff
        LCALL   ??afRegister?relay
//  226 
//  227   // Register for all key events - This app will handle all key events
//  228   RegisterForKeys( GenericApp_TaskID );
        ; Setup parameters for call to function RegisterForKeys
        MOV     DPTR,#GenericApp_TaskID
        MOVX    A,@DPTR
        MOV     R1,A
        LCALL   ??RegisterForKeys?relay
//  229 
//  230   // Update the display
//  231 #if defined ( LCD_SUPPORTED )
//  232   HalLcdWriteString( "GenericApp", HAL_LCD_LINE_1 );
        ; Setup parameters for call to function HalLcdWriteString
        MOV     R1,#0x1
        MOV     R2,#`?<Constant "GenericApp">` & 0xff
        MOV     R3,#(`?<Constant "GenericApp">` >> 8) & 0xff
        LCALL   ??HalLcdWriteString?relay
//  233 #endif
//  234 
//  235   ZDO_RegisterForZDOMsg( GenericApp_TaskID, End_Device_Bind_rsp );
        ; Setup parameters for call to function ZDO_RegisterForZDOMsg
        MOV     R2,#0x20
        MOV     R3,#-0x80
        MOV     DPTR,#GenericApp_TaskID
        MOVX    A,@DPTR
        MOV     R1,A
        LCALL   ??ZDO_RegisterForZDOMsg?relay
//  236   ZDO_RegisterForZDOMsg( GenericApp_TaskID, Match_Desc_rsp );
        ; Setup parameters for call to function ZDO_RegisterForZDOMsg
        MOV     R2,#0x6
        MOV     R3,#-0x80
        MOV     DPTR,#GenericApp_TaskID
        MOVX    A,@DPTR
        MOV     R1,A
        LCALL   ??ZDO_RegisterForZDOMsg?relay
//  237 
//  238 #if defined( IAR_ARMCM3_LM )
//  239   // Register this task with RTOS task initiator
//  240   RTOS_RegisterApp( task_id, GENERICAPP_RTOS_MSG_EVT );
//  241 #endif
//  242 }
        MOV     R7,#0x1
        LJMP    ?BANKED_LEAVE_XDATA
        CFI EndBlock cfiBlock0
        REQUIRE _A_P0
//  243 
//  244 /*********************************************************************
//  245  * @fn      GenericApp_ProcessEvent
//  246  *
//  247  * @brief   Generic Application Task event processor.  This function
//  248  *          is called to process all events for the task.  Events
//  249  *          include timers, messages and any other user defined events.
//  250  *
//  251  * @param   task_id  - The OSAL assigned task ID.
//  252  * @param   events - events to process.  This is a bit map and can
//  253  *                   contain more than one event.
//  254  *
//  255  * @return  none
//  256  */

        RSEG BANKED_CODE:CODE:NOROOT(0)
//  257 uint16 GenericApp_ProcessEvent( uint8 task_id, uint16 events )
GenericApp_ProcessEvent:
        CFI Block cfiBlock1 Using cfiCommon0
        CFI Function GenericApp_ProcessEvent
        CODE
//  258 {
        FUNCALL GenericApp_ProcessEvent, osal_msg_receive
        LOCFRAME ISTACK, 0, STACK
        LOCFRAME PSTACK, 0, STACK
        LOCFRAME XSTACK, 23, STACK
        LOCFRAME IOVERLAY, 0, STATIC
        LOCFRAME DOVERLAY, 0, STATIC
        ARGFRAME ISTACK, 0, STACK
        ARGFRAME PSTACK, 0, STACK
        ARGFRAME XSTACK, 23, STACK
        ARGFRAME IOVERLAY, 0, STATIC
        ARGFRAME DOVERLAY, 0, STATIC
        FUNCALL GenericApp_ProcessEvent, osal_start_timerEx
        LOCFRAME ISTACK, 0, STACK
        LOCFRAME PSTACK, 0, STACK
        LOCFRAME XSTACK, 23, STACK
        LOCFRAME IOVERLAY, 0, STATIC
        LOCFRAME DOVERLAY, 0, STATIC
        ARGFRAME ISTACK, 0, STACK
        ARGFRAME PSTACK, 0, STACK
        ARGFRAME XSTACK, 23, STACK
        ARGFRAME IOVERLAY, 0, STATIC
        ARGFRAME DOVERLAY, 0, STATIC
        FUNCALL GenericApp_ProcessEvent, osal_msg_deallocate
        LOCFRAME ISTACK, 0, STACK
        LOCFRAME PSTACK, 0, STACK
        LOCFRAME XSTACK, 23, STACK
        LOCFRAME IOVERLAY, 0, STATIC
        LOCFRAME DOVERLAY, 0, STATIC
        ARGFRAME ISTACK, 0, STACK
        ARGFRAME PSTACK, 0, STACK
        ARGFRAME XSTACK, 23, STACK
        ARGFRAME IOVERLAY, 0, STATIC
        ARGFRAME DOVERLAY, 0, STATIC
        FUNCALL GenericApp_ProcessEvent, osal_msg_receive
        LOCFRAME ISTACK, 0, STACK
        LOCFRAME PSTACK, 0, STACK
        LOCFRAME XSTACK, 23, STACK
        LOCFRAME IOVERLAY, 0, STATIC
        LOCFRAME DOVERLAY, 0, STATIC
        ARGFRAME ISTACK, 0, STACK
        ARGFRAME PSTACK, 0, STACK
        ARGFRAME XSTACK, 23, STACK
        ARGFRAME IOVERLAY, 0, STATIC
        ARGFRAME DOVERLAY, 0, STATIC
        FUNCALL GenericApp_ProcessEvent, ZDO_ParseEPListRsp
        LOCFRAME ISTACK, 0, STACK
        LOCFRAME PSTACK, 0, STACK
        LOCFRAME XSTACK, 23, STACK
        LOCFRAME IOVERLAY, 0, STATIC
        LOCFRAME DOVERLAY, 0, STATIC
        ARGFRAME ISTACK, 0, STACK
        ARGFRAME PSTACK, 0, STACK
        ARGFRAME XSTACK, 23, STACK
        ARGFRAME IOVERLAY, 0, STATIC
        ARGFRAME DOVERLAY, 0, STATIC
        FUNCALL GenericApp_ProcessEvent, HalLedSet
        LOCFRAME ISTACK, 0, STACK
        LOCFRAME PSTACK, 0, STACK
        LOCFRAME XSTACK, 23, STACK
        LOCFRAME IOVERLAY, 0, STATIC
        LOCFRAME DOVERLAY, 0, STATIC
        ARGFRAME ISTACK, 0, STACK
        ARGFRAME PSTACK, 0, STACK
        ARGFRAME XSTACK, 23, STACK
        ARGFRAME IOVERLAY, 0, STATIC
        ARGFRAME DOVERLAY, 0, STATIC
        FUNCALL GenericApp_ProcessEvent, osal_mem_free
        LOCFRAME ISTACK, 0, STACK
        LOCFRAME PSTACK, 0, STACK
        LOCFRAME XSTACK, 23, STACK
        LOCFRAME IOVERLAY, 0, STATIC
        LOCFRAME DOVERLAY, 0, STATIC
        ARGFRAME ISTACK, 0, STACK
        ARGFRAME PSTACK, 0, STACK
        ARGFRAME XSTACK, 23, STACK
        ARGFRAME IOVERLAY, 0, STATIC
        ARGFRAME DOVERLAY, 0, STATIC
        FUNCALL GenericApp_ProcessEvent, HalLedSet
        LOCFRAME ISTACK, 0, STACK
        LOCFRAME PSTACK, 0, STACK
        LOCFRAME XSTACK, 23, STACK
        LOCFRAME IOVERLAY, 0, STATIC
        LOCFRAME DOVERLAY, 0, STATIC
        ARGFRAME ISTACK, 0, STACK
        ARGFRAME PSTACK, 0, STACK
        ARGFRAME XSTACK, 23, STACK
        ARGFRAME IOVERLAY, 0, STATIC
        ARGFRAME DOVERLAY, 0, STATIC
        FUNCALL GenericApp_ProcessEvent, HalLedSet
        LOCFRAME ISTACK, 0, STACK
        LOCFRAME PSTACK, 0, STACK
        LOCFRAME XSTACK, 23, STACK
        LOCFRAME IOVERLAY, 0, STATIC
        LOCFRAME DOVERLAY, 0, STATIC
        ARGFRAME ISTACK, 0, STACK
        ARGFRAME PSTACK, 0, STACK
        ARGFRAME XSTACK, 23, STACK
        ARGFRAME IOVERLAY, 0, STATIC
        ARGFRAME DOVERLAY, 0, STATIC
        FUNCALL GenericApp_ProcessEvent, HalLedSet
        LOCFRAME ISTACK, 0, STACK
        LOCFRAME PSTACK, 0, STACK
        LOCFRAME XSTACK, 23, STACK
        LOCFRAME IOVERLAY, 0, STATIC
        LOCFRAME DOVERLAY, 0, STATIC
        ARGFRAME ISTACK, 0, STACK
        ARGFRAME PSTACK, 0, STACK
        ARGFRAME XSTACK, 23, STACK
        ARGFRAME IOVERLAY, 0, STATIC
        ARGFRAME DOVERLAY, 0, STATIC
        FUNCALL GenericApp_ProcessEvent, NLME_GetShortAddr
        LOCFRAME ISTACK, 0, STACK
        LOCFRAME PSTACK, 0, STACK
        LOCFRAME XSTACK, 23, STACK
        LOCFRAME IOVERLAY, 0, STATIC
        LOCFRAME DOVERLAY, 0, STATIC
        ARGFRAME ISTACK, 0, STACK
        ARGFRAME PSTACK, 0, STACK
        ARGFRAME XSTACK, 23, STACK
        ARGFRAME IOVERLAY, 0, STATIC
        ARGFRAME DOVERLAY, 0, STATIC
        FUNCALL GenericApp_ProcessEvent, ZDP_EndDeviceBindReq
        LOCFRAME ISTACK, 0, STACK
        LOCFRAME PSTACK, 0, STACK
        LOCFRAME XSTACK, 32, STACK
        LOCFRAME IOVERLAY, 0, STATIC
        LOCFRAME DOVERLAY, 0, STATIC
        ARGFRAME ISTACK, 0, STACK
        ARGFRAME PSTACK, 0, STACK
        ARGFRAME XSTACK, 32, STACK
        ARGFRAME IOVERLAY, 0, STATIC
        ARGFRAME DOVERLAY, 0, STATIC
        FUNCALL GenericApp_ProcessEvent, HalLedSet
        LOCFRAME ISTACK, 0, STACK
        LOCFRAME PSTACK, 0, STACK
        LOCFRAME XSTACK, 23, STACK
        LOCFRAME IOVERLAY, 0, STATIC
        LOCFRAME DOVERLAY, 0, STATIC
        ARGFRAME ISTACK, 0, STACK
        ARGFRAME PSTACK, 0, STACK
        ARGFRAME XSTACK, 23, STACK
        ARGFRAME IOVERLAY, 0, STATIC
        ARGFRAME DOVERLAY, 0, STATIC
        FUNCALL GenericApp_ProcessEvent, ZDP_MatchDescReq
        LOCFRAME ISTACK, 0, STACK
        LOCFRAME PSTACK, 0, STACK
        LOCFRAME XSTACK, 31, STACK
        LOCFRAME IOVERLAY, 0, STATIC
        LOCFRAME DOVERLAY, 0, STATIC
        ARGFRAME ISTACK, 0, STACK
        ARGFRAME PSTACK, 0, STACK
        ARGFRAME XSTACK, 31, STACK
        ARGFRAME IOVERLAY, 0, STATIC
        ARGFRAME DOVERLAY, 0, STATIC
        FUNCALL GenericApp_ProcessEvent, GenericApp_Send_Sensor_Message
        LOCFRAME ISTACK, 0, STACK
        LOCFRAME PSTACK, 0, STACK
        LOCFRAME XSTACK, 23, STACK
        LOCFRAME IOVERLAY, 0, STATIC
        LOCFRAME DOVERLAY, 0, STATIC
        ARGFRAME ISTACK, 0, STACK
        ARGFRAME PSTACK, 0, STACK
        ARGFRAME XSTACK, 23, STACK
        ARGFRAME IOVERLAY, 0, STATIC
        ARGFRAME DOVERLAY, 0, STATIC
        FUNCALL GenericApp_ProcessEvent, osal_start_timerEx
        LOCFRAME ISTACK, 0, STACK
        LOCFRAME PSTACK, 0, STACK
        LOCFRAME XSTACK, 23, STACK
        LOCFRAME IOVERLAY, 0, STATIC
        LOCFRAME DOVERLAY, 0, STATIC
        ARGFRAME ISTACK, 0, STACK
        ARGFRAME PSTACK, 0, STACK
        ARGFRAME XSTACK, 23, STACK
        ARGFRAME IOVERLAY, 0, STATIC
        ARGFRAME DOVERLAY, 0, STATIC
        MOV     A,#-0xe
        LCALL   ?BANKED_ENTER_XDATA
        CFI DPH0 load(1, XDATA, add(CFA_XSP16, literal(-1)))
        CFI DPL0 load(1, XDATA, add(CFA_XSP16, literal(-2)))
        CFI ?BRET_EXT load(1, XDATA, add(CFA_XSP16, literal(-3)))
        CFI ?RET_HIGH load(1, XDATA, add(CFA_XSP16, literal(-4)))
        CFI ?RET_LOW load(1, XDATA, add(CFA_XSP16, literal(-5)))
        CFI R7 load(1, XDATA, add(CFA_XSP16, literal(-6)))
        CFI V5 load(1, XDATA, add(CFA_XSP16, literal(-7)))
        CFI V4 load(1, XDATA, add(CFA_XSP16, literal(-8)))
        CFI V3 load(1, XDATA, add(CFA_XSP16, literal(-9)))
        CFI V2 load(1, XDATA, add(CFA_XSP16, literal(-10)))
        CFI V1 load(1, XDATA, add(CFA_XSP16, literal(-11)))
        CFI V0 load(1, XDATA, add(CFA_XSP16, literal(-12)))
        CFI VB load(1, XDATA, add(CFA_XSP16, literal(-13)))
        CFI R6 load(1, XDATA, add(CFA_XSP16, literal(-14)))
        CFI CFA_SP SP+0
        CFI CFA_XSP16 add(XSP16, 14)
        ; Saved register size: 14
        ; Auto size: 9
        MOV     A,#-0x9
        LCALL   ?ALLOC_XSTACK8
        CFI CFA_XSP16 add(XSP16, 23)
        MOV     A,R2
        MOV     R6,A
        MOV     A,R3
        MOV     R7,A
//  259   afIncomingMSGPacket_t *MSGpkt;
//  260   afDataConfirm_t *afDataConfirm;
//  261 
//  262   // Data Confirmation message fields
//  263   byte sentEP;
//  264   ZStatus_t sentStatus;
//  265   byte sentTransID;       // This should match the value sent
//  266   (void)task_id;  // Intentionally unreferenced parameter
//  267 
//  268   if ( events & SYS_EVENT_MSG )
        ANL     A,#0x80
        JNZ     $+5
        LJMP    ??GenericApp_ProcessEvent_0 & 0xFFFF
//  269   {
//  270     MSGpkt = (afIncomingMSGPacket_t *)osal_msg_receive( GenericApp_TaskID );
        ; Setup parameters for call to function osal_msg_receive
        SJMP    ??GenericApp_ProcessEvent_1
//  271     while ( MSGpkt )
//  272     {
//  273       switch ( MSGpkt->hdr.event )
//  274       {
//  275         case ZDO_CB_MSG:
//  276           GenericApp_ProcessZDOMsgs( (zdoIncomingMsg_t *)MSGpkt );
//  277           break;
//  278 
//  279         case KEY_CHANGE:
//  280           GenericApp_HandleKeys( ((keyChange_t *)MSGpkt)->state, ((keyChange_t *)MSGpkt)->keys );
//  281           break;
//  282 
//  283         case AF_DATA_CONFIRM_CMD:
//  284           // This message is received as a confirmation of a data packet sent.
//  285           // The status is of ZStatus_t type [defined in ZComDef.h]
//  286           // The message fields are defined in AF.h
//  287           afDataConfirm = (afDataConfirm_t *)MSGpkt;
//  288           sentEP = afDataConfirm->endpoint;
//  289           sentStatus = afDataConfirm->hdr.status;
//  290           sentTransID = afDataConfirm->transID;
//  291           (void)sentEP;
//  292           (void)sentTransID;
//  293 
//  294           // Action taken when confirmation is received.
//  295           if ( sentStatus != ZSuccess )
//  296           {
//  297             // The data wasn't delivered -- Do something
//  298           }
//  299           break;
//  300 
//  301         case AF_INCOMING_MSG_CMD:
//  302           GenericApp_MessageMSGCB( MSGpkt );
//  303           break;
//  304 
//  305         case ZDO_STATE_CHANGE:
//  306           GenericApp_NwkState = (devStates_t)(MSGpkt->hdr.status);
??GenericApp_ProcessEvent_2:
        INC     DPTR
        MOVX    A,@DPTR
        MOV     DPTR,#GenericApp_NwkState
        MOVX    @DPTR,A
//  307           if ( (GenericApp_NwkState == DEV_ZB_COORD)
//  308               || (GenericApp_NwkState == DEV_ROUTER)
//  309               || (GenericApp_NwkState == DEV_END_DEVICE) )
        XRL     A,#0x9
        JZ      ??GenericApp_ProcessEvent_3
        MOVX    A,@DPTR
        XRL     A,#0x7
        JZ      ??GenericApp_ProcessEvent_3
        MOVX    A,@DPTR
        XRL     A,#0x6
        JNZ     ??GenericApp_ProcessEvent_4
//  310           {
//  311             // Start sending "the" message in a regular interval.
//  312             osal_start_timerEx( GenericApp_TaskID,
//  313                                 GENERICAPP_SEND_MSG_EVT,
//  314                                 GENERICAPP_SEND_MSG_TIMEOUT );
??GenericApp_ProcessEvent_3:
        ; Setup parameters for call to function osal_start_timerEx
        MOV     R4,#-0x78
        MOV     R5,#0x13
        MOV     R2,#0x1
        MOV     R3,#0x0
        MOV     DPTR,#GenericApp_TaskID
        MOVX    A,@DPTR
        MOV     R1,A
        LCALL   ??osal_start_timerEx?relay
//  315           }
//  316           break;
//  317 
//  318         default:
//  319           break;
//  320       }
//  321 
//  322       // Release the memory
//  323       osal_msg_deallocate( (uint8 *)MSGpkt );
??GenericApp_ProcessEvent_4:
        ; Setup parameters for call to function osal_msg_deallocate
        MOV     R2,?V0 + 0
        MOV     R3,?V0 + 1
        LCALL   ??osal_msg_deallocate?relay
//  324 
//  325       // Next
//  326       MSGpkt = (afIncomingMSGPacket_t *)osal_msg_receive( GenericApp_TaskID );
        ; Setup parameters for call to function osal_msg_receive
??GenericApp_ProcessEvent_1:
        MOV     DPTR,#GenericApp_TaskID
        MOVX    A,@DPTR
        MOV     R1,A
        LCALL   ??osal_msg_receive?relay
        MOV     ?V0 + 0,R2
        MOV     ?V0 + 1,R3
        MOV     A,?V0 + 0
        ORL     A,?V0 + 1
        JNZ     $+5
        LJMP    ??GenericApp_ProcessEvent_5 & 0xFFFF
        MOV     DPL,?V0 + 0
        MOV     DPH,?V0 + 1
        MOVX    A,@DPTR
        ADD     A,#0x40
        JNZ     $+5
        LJMP    ??GenericApp_ProcessEvent_6 & 0xFFFF
        ADD     A,#-0x11
        JZ      ??GenericApp_ProcessEvent_2
        ADD     A,#-0x2
        JNZ     ??GenericApp_ProcessEvent_4
        MOV     A,?V0 + 0
        ADD     A,#0xc
        MOV     DPL,A
        MOV     A,?V0 + 1
        ADDC    A,#0x0
        MOV     DPH,A
        MOVX    A,@DPTR
        MOV     ?V0 + 2,A
        INC     DPTR
        MOVX    A,@DPTR
        MOV     ?V0 + 3,A
        MOV     R0,#?V0 + 2
        LCALL   ?US_SWITCH_SPARSE
`?<Jumptable for GenericApp_ProcessEvent>_0`:
        DATA
        DATA16
        DATA
        DATA16
        DATA
        DATA16
        DW        0
        DATA
        DATA16
        DATA
        DATA16
        DATA
        DATA16
        DW        2
        DATA
        DATA16
        DATA
        DATA16
        DATA
        DATA16
        DW        32774
        DATA
        DATA16
        DATA
        DATA16
        DATA
        DATA16
        DW        ??GenericApp_ProcessEvent_7
        DATA
        DATA16
        DATA
        DATA16
        DATA
        DATA16
        DW        32800
        DATA
        DATA16
        DATA
        DATA16
        DATA
        DATA16
        DW        ??GenericApp_ProcessEvent_8
        DATA
        DATA16
        DATA
        DATA16
        DW        ??GenericApp_ProcessEvent_4
        CODE
??GenericApp_ProcessEvent_7:
        ; Setup parameters for call to function ZDO_ParseEPListRsp
        MOV     R2,?V0 + 0
        MOV     R3,?V0 + 1
        LCALL   ??ZDO_ParseEPListRsp?relay
        MOV     ?V0 + 2,R2
        MOV     ?V0 + 3,R3
        MOV     A,R2
        ORL     A,?V0 + 3
        JZ      ??GenericApp_ProcessEvent_4
        MOV     DPL,R2
        MOV     DPH,R3
        MOVX    A,@DPTR
        JNZ     ??GenericApp_ProcessEvent_9
        INC     DPTR
        INC     DPTR
        INC     DPTR
        MOVX    A,@DPTR
        JZ      ??GenericApp_ProcessEvent_9
        MOV     DPTR,#GenericApp_DstAddr + 8
        MOV     A,#0x2
        MOVX    @DPTR,A
        MOV     DPL,R2
        MOV     DPH,R3
        INC     DPTR
        MOVX    A,@DPTR
        MOV     R0,A
        INC     DPTR
        MOVX    A,@DPTR
        MOV     R1,A
        MOV     DPTR,#GenericApp_DstAddr
        MOV     A,R0
        MOVX    @DPTR,A
        INC     DPTR
        MOV     A,R1
        MOVX    @DPTR,A
        MOV     DPL,R2
        MOV     DPH,R3
        INC     DPTR
        INC     DPTR
        INC     DPTR
        INC     DPTR
        MOVX    A,@DPTR
        MOV     DPTR,#GenericApp_DstAddr + 9
        MOVX    @DPTR,A
        ; Setup parameters for call to function HalLedSet
        MOV     R2,#0x1
        MOV     R1,#0x8
        LCALL   ??HalLedSet?relay
??GenericApp_ProcessEvent_9:
        ; Setup parameters for call to function osal_mem_free
        MOV     R2,?V0 + 2
        MOV     R3,?V0 + 3
        LCALL   ??osal_mem_free?relay
        LJMP    ??GenericApp_ProcessEvent_4 & 0xFFFF
??GenericApp_ProcessEvent_8:
        MOV     A,?V0 + 0
        ADD     A,#0x13
        MOV     DPL,A
        MOV     A,?V0 + 1
        ADDC    A,#0x0
        MOV     DPH,A
        MOVX    A,@DPTR
        MOV     R0,A
        INC     DPTR
        MOVX    A,@DPTR
        MOV     DPH,A
        MOV     DPL,R0
        MOVX    A,@DPTR
        JNZ     ??GenericApp_ProcessEvent_10
        ; Setup parameters for call to function HalLedSet
        MOV     R2,#0x1
??GenericApp_ProcessEvent_11:
        MOV     R1,#0x8
        LCALL   ??HalLedSet?relay
        LJMP    ??GenericApp_ProcessEvent_4 & 0xFFFF
??GenericApp_ProcessEvent_10:
        ; Setup parameters for call to function HalLedSet
        MOV     R2,#0x4
        SJMP    ??GenericApp_ProcessEvent_11
??GenericApp_ProcessEvent_6:
        INC     DPTR
        INC     DPTR
        INC     DPTR
        MOVX    A,@DPTR
        MOV     ?V0 + 4,A
        MOV     DPL,?V0 + 0
        MOV     DPH,?V0 + 1
        INC     DPTR
        INC     DPTR
        MOVX    A,@DPTR
        JZ      $+5
        LJMP    ??GenericApp_ProcessEvent_4 & 0xFFFF
        MOV     A,?V0 + 4
        MOV     C,0xE0 /* A   */.1
        JNC     ??GenericApp_ProcessEvent_12
        ; Setup parameters for call to function HalLedSet
        MOV     R2,#0x0
        MOV     R1,#0x8
        LCALL   ??HalLedSet?relay
        MOV     A,#0x8
        LCALL   ?XSTACK_DISP0_8
        MOV     A,#0x2
        MOVX    @DPTR,A
        MOV     DPL,?XSP + 0
        MOV     DPH,?XSP + 1
        CLR     A
        MOVX    @DPTR,A
        INC     DPTR
        MOVX    @DPTR,A
        ; Setup parameters for call to function NLME_GetShortAddr
        LCALL   ??NLME_GetShortAddr?relay
        MOV     ?V0 + 2,R2
        MOV     ?V0 + 3,R3
        MOV     R4,?V0 + 2
        MOV     R5,?V0 + 3
        MOV     ?V0 + 2,#GenericApp_ClusterList & 0xff
        MOV     ?V0 + 3,#(GenericApp_ClusterList >> 8) & 0xff
        ; Setup parameters for call to function ZDP_EndDeviceBindReq
        MOV     ?V0 + 5,#0x0
        MOV     R0,#?V0 + 5
        LCALL   ?PUSH_XSTACK_I_ONE
        CFI CFA_XSP16 add(XSP16, 24)
        MOV     R0,#?V0 + 2
        LCALL   ?PUSH_XSTACK_I_TWO
        CFI CFA_XSP16 add(XSP16, 26)
        MOV     ?V0 + 5,#0x4
        MOV     R0,#?V0 + 5
        LCALL   ?PUSH_XSTACK_I_ONE
        CFI CFA_XSP16 add(XSP16, 27)
        MOV     R0,#?V0 + 2
        LCALL   ?PUSH_XSTACK_I_TWO
        CFI CFA_XSP16 add(XSP16, 29)
        MOV     ?V0 + 2,#0x4
        MOV     R0,#?V0 + 2
        LCALL   ?PUSH_XSTACK_I_ONE
        CFI CFA_XSP16 add(XSP16, 30)
        MOV     ?V0 + 3,#0xf
        MOV     R0,#?V0 + 2
        LCALL   ?PUSH_XSTACK_I_TWO
        CFI CFA_XSP16 add(XSP16, 32)
        MOV     DPTR,#GenericApp_epDesc
        MOVX    A,@DPTR
        MOV     R1,A
        MOV     A,#0x9
        LCALL   ?XSTACK_DISP0_8
        MOV     R2,DPL
        MOV     R3,DPH
        LCALL   ??ZDP_EndDeviceBindReq?relay
        MOV     A,#0x9
        LCALL   ?DEALLOC_XSTACK8
        CFI CFA_XSP16 add(XSP16, 23)
??GenericApp_ProcessEvent_12:
        MOV     A,?V0 + 4
        MOV     C,0xE0 /* A   */.3
        JC      $+5
        LJMP    ??GenericApp_ProcessEvent_4 & 0xFFFF
        ; Setup parameters for call to function HalLedSet
        MOV     R2,#0x0
        MOV     R1,#0x8
        LCALL   ??HalLedSet?relay
        MOV     A,#0x8
        LCALL   ?XSTACK_DISP0_8
        MOV     A,#0xf
        MOVX    @DPTR,A
        MOV     DPL,?XSP + 0
        MOV     DPH,?XSP + 1
        MOV     A,#-0x1
        MOVX    @DPTR,A
        INC     DPTR
        MOVX    @DPTR,A
        MOV     ?V0 + 2,#GenericApp_ClusterList & 0xff
        MOV     ?V0 + 3,#(GenericApp_ClusterList >> 8) & 0xff
        ; Setup parameters for call to function ZDP_MatchDescReq
        MOV     ?V0 + 4,#0x0
        MOV     R0,#?V0 + 4
        LCALL   ?PUSH_XSTACK_I_ONE
        CFI CFA_XSP16 add(XSP16, 24)
        MOV     R0,#?V0 + 2
        LCALL   ?PUSH_XSTACK_I_TWO
        CFI CFA_XSP16 add(XSP16, 26)
        MOV     ?V0 + 4,#0x4
        MOV     R0,#?V0 + 4
        LCALL   ?PUSH_XSTACK_I_ONE
        CFI CFA_XSP16 add(XSP16, 27)
        MOV     R0,#?V0 + 2
        LCALL   ?PUSH_XSTACK_I_TWO
        CFI CFA_XSP16 add(XSP16, 29)
        MOV     ?V0 + 2,#0x4
        MOV     ?V0 + 3,#0xf
        MOV     R0,#?V0 + 2
        LCALL   ?PUSH_XSTACK_I_TWO
        CFI CFA_XSP16 add(XSP16, 31)
        MOV     R1,#0x4
        MOV     R4,#-0x1
        MOV     R5,#-0x1
        MOV     A,#0x8
        LCALL   ?XSTACK_DISP0_8
        MOV     R2,DPL
        MOV     R3,DPH
        LCALL   ??ZDP_MatchDescReq?relay
        MOV     A,#0x8
        LCALL   ?DEALLOC_XSTACK8
        CFI CFA_XSP16 add(XSP16, 23)
        LJMP    ??GenericApp_ProcessEvent_4 & 0xFFFF
//  327     }
//  328 
//  329     // return unprocessed events
//  330     return (events ^ SYS_EVENT_MSG);
??GenericApp_ProcessEvent_5:
        MOV     A,R6
        MOV     R2,A
        MOV     A,R7
        XRL     A,#0x80
??GenericApp_ProcessEvent_13:
        MOV     R3,A
        SJMP    ??GenericApp_ProcessEvent_14
//  331   }
//  332 
//  333   // Send a message out - This event is generated by a timer
//  334   //  (setup in GenericApp_Init()).
//  335   if ( events & GENERICAPP_SEND_MSG_EVT )
??GenericApp_ProcessEvent_0:
        MOV     A,R6
        MOV     C,0xE0 /* A   */.0
        JNC     ??GenericApp_ProcessEvent_15
//  336   {
//  337     // Send "the" message
//  338     //GenericApp_SendTheMessage();
//  339     //GenericApp_Send_GAN_Message();//无线发送烟雾
//  340     //GenericApp_Send_Guangqiang_Message();//无线发送光强
//  341     //GenericApp_Send_rentihongwai_Message( );//我加的，人体红外无线发送函数
//  342     //GenericApp_Send_wenshidu_Message();
//  343     //GenericApp_Send_wedu_Message( );//我加的，温度无线发送函数
//  344     GenericApp_Send_Sensor_Message();
        ; Setup parameters for call to function GenericApp_Send_Sensor_Message
        LCALL   ??GenericApp_Send_Sensor_Message?relay
//  345     
//  346     // Setup to send message again
//  347     osal_start_timerEx( GenericApp_TaskID,
//  348                         GENERICAPP_SEND_MSG_EVT,
//  349                         GENERICAPP_SEND_MSG_TIMEOUT );
        ; Setup parameters for call to function osal_start_timerEx
        MOV     R4,#-0x78
        MOV     R5,#0x13
        MOV     R2,#0x1
        MOV     R3,#0x0
        MOV     DPTR,#GenericApp_TaskID
        MOVX    A,@DPTR
        MOV     R1,A
        LCALL   ??osal_start_timerEx?relay
//  350 
//  351     // return unprocessed events
//  352     return (events ^ GENERICAPP_SEND_MSG_EVT);
        MOV     A,R6
        XRL     A,#0x1
        MOV     R2,A
        MOV     A,R7
        SJMP    ??GenericApp_ProcessEvent_13
//  353   }
//  354 
//  355   
//  356 #if defined( IAR_ARMCM3_LM )
//  357   // Receive a message from the RTOS queue
//  358   if ( events & GENERICAPP_RTOS_MSG_EVT )
//  359   {
//  360     // Process message from RTOS queue
//  361     GenericApp_ProcessRtosMessage();
//  362 
//  363     // return unprocessed events
//  364     return (events ^ GENERICAPP_RTOS_MSG_EVT);
//  365   }
//  366 #endif
//  367 
//  368   // Discard unknown events
//  369   return 0;
??GenericApp_ProcessEvent_15:
        MOV     R2,#0x0
        MOV     R3,#0x0
??GenericApp_ProcessEvent_14:
        MOV     A,#0x9
        LCALL   ?DEALLOC_XSTACK8
        CFI CFA_XSP16 add(XSP16, 14)
        MOV     R7,#0x6
        LJMP    ?BANKED_LEAVE_XDATA
        CFI EndBlock cfiBlock1
//  370 }
//  371 
//  372 /*********************************************************************
//  373  * Event Generation Functions
//  374  */
//  375 
//  376 /*********************************************************************
//  377  * @fn      GenericApp_ProcessZDOMsgs()
//  378  *
//  379  * @brief   Process response messages
//  380  *
//  381  * @param   none
//  382  *
//  383  * @return  none
//  384  */
//  385 static void GenericApp_ProcessZDOMsgs( zdoIncomingMsg_t *inMsg )
//  386 {
//  387   switch ( inMsg->clusterID )
//  388   {
//  389     case End_Device_Bind_rsp:
//  390       if ( ZDO_ParseBindRsp( inMsg ) == ZSuccess )
//  391       {
//  392         // Light LED
//  393         HalLedSet( HAL_LED_4, HAL_LED_MODE_ON );
//  394       }
//  395 #if defined( BLINK_LEDS )
//  396       else
//  397       {
//  398         // Flash LED to show failure
//  399         HalLedSet ( HAL_LED_4, HAL_LED_MODE_FLASH );
//  400       }
//  401 #endif
//  402       break;
//  403 
//  404     case Match_Desc_rsp:
//  405       {
//  406         ZDO_ActiveEndpointRsp_t *pRsp = ZDO_ParseEPListRsp( inMsg );
//  407         if ( pRsp )
//  408         {
//  409           if ( pRsp->status == ZSuccess && pRsp->cnt )
//  410           {
//  411             GenericApp_DstAddr.addrMode = (afAddrMode_t)Addr16Bit;
//  412             GenericApp_DstAddr.addr.shortAddr = pRsp->nwkAddr;
//  413             // Take the first endpoint, Can be changed to search through endpoints
//  414             GenericApp_DstAddr.endPoint = pRsp->epList[0];
//  415 
//  416             // Light LED
//  417             HalLedSet( HAL_LED_4, HAL_LED_MODE_ON );
//  418           }
//  419           osal_mem_free( pRsp );
//  420         }
//  421       }
//  422       break;
//  423   }
//  424 }
//  425 
//  426 /*********************************************************************
//  427  * @fn      GenericApp_HandleKeys
//  428  *
//  429  * @brief   Handles all key events for this device.
//  430  *
//  431  * @param   shift - true if in shift/alt.
//  432  * @param   keys - bit field for key events. Valid entries:
//  433  *                 HAL_KEY_SW_4
//  434  *                 HAL_KEY_SW_3
//  435  *                 HAL_KEY_SW_2
//  436  *                 HAL_KEY_SW_1
//  437  *
//  438  * @return  none
//  439  */
//  440 static void GenericApp_HandleKeys( uint8 shift, uint8 keys )
//  441 {
//  442   zAddrType_t dstAddr;
//  443 
//  444   // Shift is used to make each button/switch dual purpose.
//  445   if ( shift )
//  446   {
//  447     if ( keys & HAL_KEY_SW_1 )
//  448     {
//  449     }
//  450     if ( keys & HAL_KEY_SW_2 )
//  451     {
//  452     }
//  453     if ( keys & HAL_KEY_SW_3 )
//  454     {
//  455     }
//  456     if ( keys & HAL_KEY_SW_4 )
//  457     {
//  458     }
//  459   }
//  460   else
//  461   {
//  462     if ( keys & HAL_KEY_SW_1 )
//  463     {
//  464       // Since SW1 isn't used for anything else in this application...
//  465 #if defined( SWITCH1_BIND )
//  466       // we can use SW1 to simulate SW2 for devices that only have one switch,
//  467       keys |= HAL_KEY_SW_2;
//  468 #elif defined( SWITCH1_MATCH )
//  469       // or use SW1 to simulate SW4 for devices that only have one switch
//  470       keys |= HAL_KEY_SW_4;
//  471 #endif
//  472     }
//  473 
//  474     if ( keys & HAL_KEY_SW_2 )
//  475     {
//  476       HalLedSet ( HAL_LED_4, HAL_LED_MODE_OFF );
//  477 
//  478       // Initiate an End Device Bind Request for the mandatory endpoint
//  479       dstAddr.addrMode = Addr16Bit;
//  480       dstAddr.addr.shortAddr = 0x0000; // Coordinator
//  481       ZDP_EndDeviceBindReq( &dstAddr, NLME_GetShortAddr(),
//  482                             GenericApp_epDesc.endPoint,
//  483                             GENERICAPP_PROFID,
//  484                             GENERICAPP_MAX_CLUSTERS, (cId_t *)GenericApp_ClusterList,
//  485                             GENERICAPP_MAX_CLUSTERS, (cId_t *)GenericApp_ClusterList,
//  486                             FALSE );
//  487     }
//  488 
//  489     if ( keys & HAL_KEY_SW_3 )
//  490     {
//  491     }
//  492 
//  493     if ( keys & HAL_KEY_SW_4 )
//  494     {
//  495       HalLedSet ( HAL_LED_4, HAL_LED_MODE_OFF );
//  496       // Initiate a Match Description Request (Service Discovery)
//  497       dstAddr.addrMode = AddrBroadcast;
//  498       dstAddr.addr.shortAddr = NWK_BROADCAST_SHORTADDR;
//  499       ZDP_MatchDescReq( &dstAddr, NWK_BROADCAST_SHORTADDR,
//  500                         GENERICAPP_PROFID,
//  501                         GENERICAPP_MAX_CLUSTERS, (cId_t *)GenericApp_ClusterList,
//  502                         GENERICAPP_MAX_CLUSTERS, (cId_t *)GenericApp_ClusterList,
//  503                         FALSE );
//  504     }
//  505   }
//  506 }
//  507 
//  508 /*********************************************************************
//  509  * LOCAL FUNCTIONS
//  510  */
//  511 
//  512 /*********************************************************************
//  513  * @fn      GenericApp_MessageMSGCB
//  514  *
//  515  * @brief   Data message processor callback.  This function processes
//  516  *          any incoming data - probably from other devices.  So, based
//  517  *          on cluster ID, perform the intended action.
//  518  *
//  519  * @param   none
//  520  *
//  521  * @return  none
//  522  */
//  523 static void GenericApp_MessageMSGCB( afIncomingMSGPacket_t *pkt )
//  524 {
//  525   /*switch ( pkt->clusterId )
//  526   {
//  527     case GENERICAPP_CLUSTERID:
//  528       // "the" message
//  529 #if defined( LCD_SUPPORTED )
//  530       HalLcdWriteScreen( (char*)pkt->cmd.Data, "rcvd" );
//  531 #elif defined( WIN32 )
//  532       WPRINTSTR( pkt->cmd.Data );
//  533 #endif
//  534       break;
//  535   }*/
//  536 }
//  537 
//  538 /*********************************************************************
//  539  * @fn      GenericApp_Send_Sensor_Message
//  540  *
//  541  * @brief   point to point.
//  542  *
//  543  * @param   none
//  544  *
//  545  * @return  none
//  546  */

        RSEG BANKED_CODE:CODE:NOROOT(0)
//  547 void GenericApp_Send_Sensor_Message( void )
GenericApp_Send_Sensor_Message:
        CFI Block cfiBlock2 Using cfiCommon0
        CFI Function GenericApp_Send_Sensor_Message
        CODE
//  548 {
        FUNCALL GenericApp_Send_Sensor_Message, DHT11
        LOCFRAME ISTACK, 0, STACK
        LOCFRAME PSTACK, 0, STACK
        LOCFRAME XSTACK, 21, STACK
        LOCFRAME IOVERLAY, 0, STATIC
        LOCFRAME DOVERLAY, 0, STATIC
        ARGFRAME ISTACK, 0, STACK
        ARGFRAME PSTACK, 0, STACK
        ARGFRAME XSTACK, 21, STACK
        ARGFRAME IOVERLAY, 0, STATIC
        ARGFRAME DOVERLAY, 0, STATIC
        FUNCALL GenericApp_Send_Sensor_Message, myApp_ReadLightLevel
        LOCFRAME ISTACK, 0, STACK
        LOCFRAME PSTACK, 0, STACK
        LOCFRAME XSTACK, 21, STACK
        LOCFRAME IOVERLAY, 0, STATIC
        LOCFRAME DOVERLAY, 0, STATIC
        ARGFRAME ISTACK, 0, STACK
        ARGFRAME PSTACK, 0, STACK
        ARGFRAME XSTACK, 21, STACK
        ARGFRAME IOVERLAY, 0, STATIC
        ARGFRAME DOVERLAY, 0, STATIC
        FUNCALL GenericApp_Send_Sensor_Message, myApp_ReadGasLevel
        LOCFRAME ISTACK, 0, STACK
        LOCFRAME PSTACK, 0, STACK
        LOCFRAME XSTACK, 21, STACK
        LOCFRAME IOVERLAY, 0, STATIC
        LOCFRAME DOVERLAY, 0, STATIC
        ARGFRAME ISTACK, 0, STACK
        ARGFRAME PSTACK, 0, STACK
        ARGFRAME XSTACK, 21, STACK
        ARGFRAME IOVERLAY, 0, STATIC
        ARGFRAME DOVERLAY, 0, STATIC
        FUNCALL GenericApp_Send_Sensor_Message, AF_DataRequest
        LOCFRAME ISTACK, 0, STACK
        LOCFRAME PSTACK, 0, STACK
        LOCFRAME XSTACK, 30, STACK
        LOCFRAME IOVERLAY, 0, STATIC
        LOCFRAME DOVERLAY, 0, STATIC
        ARGFRAME ISTACK, 0, STACK
        ARGFRAME PSTACK, 0, STACK
        ARGFRAME XSTACK, 30, STACK
        ARGFRAME IOVERLAY, 0, STATIC
        ARGFRAME DOVERLAY, 0, STATIC
        MOV     A,#-0xa
        LCALL   ?BANKED_ENTER_XDATA
        CFI DPH0 load(1, XDATA, add(CFA_XSP16, literal(-1)))
        CFI DPL0 load(1, XDATA, add(CFA_XSP16, literal(-2)))
        CFI ?BRET_EXT load(1, XDATA, add(CFA_XSP16, literal(-3)))
        CFI ?RET_HIGH load(1, XDATA, add(CFA_XSP16, literal(-4)))
        CFI ?RET_LOW load(1, XDATA, add(CFA_XSP16, literal(-5)))
        CFI R7 load(1, XDATA, add(CFA_XSP16, literal(-6)))
        CFI V1 load(1, XDATA, add(CFA_XSP16, literal(-7)))
        CFI V0 load(1, XDATA, add(CFA_XSP16, literal(-8)))
        CFI VB load(1, XDATA, add(CFA_XSP16, literal(-9)))
        CFI R6 load(1, XDATA, add(CFA_XSP16, literal(-10)))
        CFI CFA_SP SP+0
        CFI CFA_XSP16 add(XSP16, 10)
        ; Saved register size: 10
        ; Auto size: 11
        MOV     A,#-0xb
        LCALL   ?ALLOC_XSTACK8
        CFI CFA_XSP16 add(XSP16, 21)
//  549   byte strTemp[11];
//  550   
//  551   strTemp[0] = 'S';
        MOV     DPL,?XSP + 0
        MOV     DPH,?XSP + 1
        MOV     A,#0x53
        LCALL   ?Subroutine4 & 0xFFFF
//  552   strTemp[1] = sensorID;
??CrossCallReturnLabel_5:
        PUSH    A
        CFI CFA_SP SP+-1
        MOV     A,#0x1
        LCALL   ?XSTACK_DISP0_8
        POP     A
        CFI CFA_SP SP+0
        MOVX    @DPTR,A
//  553 
//  554   //read temperature and humidity
//  555   DHT11();
        ; Setup parameters for call to function DHT11
        LCALL   ?Subroutine5 & 0xFFFF
//  556   strTemp[2] = wendu_shi+0x30;
??CrossCallReturnLabel_10:
        PUSH    A
        CFI CFA_SP SP+-1
        MOV     A,#0x2
        LCALL   ?XSTACK_DISP0_8
        POP     A
        CFI CFA_SP SP+0
        MOVX    @DPTR,A
//  557   strTemp[3] = wendu_ge+0x30;
        MOV     DPTR,#wendu_ge
        MOVX    A,@DPTR
        ADD     A,#0x30
        PUSH    A
        CFI CFA_SP SP+-1
        MOV     A,#0x3
        LCALL   ?XSTACK_DISP0_8
        POP     A
        CFI CFA_SP SP+0
        MOVX    @DPTR,A
//  558   strTemp[4] = shidu_shi+0x30;
        MOV     DPTR,#shidu_shi
        MOVX    A,@DPTR
        ADD     A,#0x30
        PUSH    A
        CFI CFA_SP SP+-1
        MOV     A,#0x4
        LCALL   ?XSTACK_DISP0_8
        POP     A
        CFI CFA_SP SP+0
        MOVX    @DPTR,A
//  559   strTemp[5] = shidu_ge+0x30;  
        MOV     DPTR,#shidu_ge
        MOVX    A,@DPTR
        ADD     A,#0x30
        PUSH    A
        CFI CFA_SP SP+-1
        MOV     A,#0x5
        LCALL   ?XSTACK_DISP0_8
        POP     A
        CFI CFA_SP SP+0
        MOVX    @DPTR,A
//  560   //read light level
//  561   uint16 LightLevel = myApp_ReadLightLevel();  
        ; Setup parameters for call to function myApp_ReadLightLevel
        LCALL   ?Subroutine6 & 0xFFFF
//  562   strTemp[6] = LightLevel / 10%10 + '0';
??CrossCallReturnLabel_12:
        LCALL   ?US_DIV_MOD
        MOV     R2,#0xa
        MOV     R3,#0x0
        LCALL   ?US_DIV_MOD
        MOV     A,R2
        ADD     A,#0x30
        PUSH    A
        CFI CFA_SP SP+-1
        MOV     A,#0x6
        LCALL   ?XSTACK_DISP0_8
        POP     A
        CFI CFA_SP SP+0
        MOVX    @DPTR,A
//  563   strTemp[7] = LightLevel % 100 + '0';
        MOV     A,R4
        MOV     R0,A
        MOV     A,R5
        MOV     R1,A
        MOV     R2,#0x64
        MOV     R3,#0x0
        LCALL   ?US_DIV_MOD
        MOV     A,R2
        ADD     A,#0x30
        PUSH    A
        CFI CFA_SP SP+-1
        MOV     A,#0x7
        LCALL   ?XSTACK_DISP0_8
        POP     A
        CFI CFA_SP SP+0
        MOVX    @DPTR,A
//  564   //read gas level
//  565   uint16 GasLevel = myApp_ReadGasLevel();
        ; Setup parameters for call to function myApp_ReadGasLevel
        LCALL   ?Subroutine7 & 0xFFFF
//  566   strTemp[8] = GasLevel / 10%10 + '0';
??CrossCallReturnLabel_14:
        MOV     R2,#0xa
        MOV     R3,#0x0
        LCALL   ?US_DIV_MOD
        MOV     R2,#0xa
        MOV     R3,#0x0
        LCALL   ?US_DIV_MOD
        MOV     A,R2
        ADD     A,#0x30
        PUSH    A
        CFI CFA_SP SP+-1
        MOV     A,#0x8
        LCALL   ?XSTACK_DISP0_8
        POP     A
        CFI CFA_SP SP+0
        LCALL   ??Subroutine12_0 & 0xFFFF
//  567   strTemp[9] = GasLevel % 10 + '0';
??CrossCallReturnLabel_27:
        LCALL   ?US_DIV_MOD
        MOV     A,R2
        ADD     A,#0x30
        PUSH    A
        CFI CFA_SP SP+-1
        MOV     A,#0x9
        LCALL   ?XSTACK_DISP0_8
        POP     A
        CFI CFA_SP SP+0
        MOVX    @DPTR,A
//  568   //read PIR sensor
//  569   if(P0_5 == 0)
        MOV     C,0x80.5
        MOV     A,#0xa
        JC      ??GenericApp_Send_Sensor_Message_0
//  570   {
//  571     strTemp[10] = '0' ;
        LCALL   ?XSTACK_DISP0_8
        MOV     A,#0x30
        SJMP    ??GenericApp_Send_Sensor_Message_1
//  572   }
//  573   else
//  574   {
//  575     strTemp[10] = '1' ;
??GenericApp_Send_Sensor_Message_0:
        LCALL   ?XSTACK_DISP0_8
        MOV     A,#0x31
//  576   }
??GenericApp_Send_Sensor_Message_1:
        LCALL   ?Subroutine3 & 0xFFFF
//  577   
//  578   AF_DataRequest( &GenericApp_DstAddr, &GenericApp_epDesc,
//  579                        GenericApp_Sensor_CLUSTERID,
//  580                        11,
//  581                        strTemp,
//  582                        &GenericApp_TransID,
//  583                        AF_DISCV_ROUTE,
//  584                        AF_DEFAULT_RADIUS ) ;
??CrossCallReturnLabel_0:
        LCALL   ?PUSH_XSTACK_I_ONE
        CFI CFA_XSP16 add(XSP16, 22)
        MOV     ?V0 + 0,#GenericApp_TransID & 0xff
        MOV     ?V0 + 1,#(GenericApp_TransID >> 8) & 0xff
        MOV     R0,#?V0 + 0
        LCALL   ?PUSH_XSTACK_I_TWO
        CFI CFA_XSP16 add(XSP16, 24)
        MOV     A,#0x3
        LCALL   ?XSTACK_DISP0_8
        MOV     ?V0 + 0,DPL
        MOV     ?V0 + 1,DPH
        MOV     R0,#?V0 + 0
        LCALL   ?PUSH_XSTACK_I_TWO
        CFI CFA_XSP16 add(XSP16, 26)
        MOV     ?V0 + 0,#0xb
        MOV     ?V0 + 1,#0x0
        MOV     R0,#?V0 + 0
        LCALL   ?PUSH_XSTACK_I_TWO
        CFI CFA_XSP16 add(XSP16, 28)
        MOV     ?V0 + 0,#0x7
        MOV     R0,#?V0 + 0
        LCALL   ?PUSH_XSTACK_I_TWO
        CFI CFA_XSP16 add(XSP16, 30)
        LCALL   ?Subroutine8 & 0xFFFF
??CrossCallReturnLabel_16:
        LCALL   ?DEALLOC_XSTACK8
        CFI CFA_XSP16 add(XSP16, 21)
//  585 }
        MOV     A,#0xb
        SJMP    ??Subroutine11_0
        CFI EndBlock cfiBlock2
        REQUIRE _A_P0

        RSEG BANKED_CODE:CODE:NOROOT(0)
?Subroutine0:
        CFI Block cfiBlock3 Using cfiCommon0
        CFI NoFunction
        CFI CFA_SP SP+0
        CFI CFA_XSP16 add(XSP16, 20)
        CFI VB load(1, XDATA, add(CFA_XSP16, literal(-9)))
        CFI DPL0 load(1, XDATA, add(CFA_XSP16, literal(-2)))
        CFI DPH0 load(1, XDATA, add(CFA_XSP16, literal(-1)))
        CFI R6 load(1, XDATA, add(CFA_XSP16, literal(-10)))
        CFI R7 load(1, XDATA, add(CFA_XSP16, literal(-6)))
        CFI V0 load(1, XDATA, add(CFA_XSP16, literal(-8)))
        CFI V1 load(1, XDATA, add(CFA_XSP16, literal(-7)))
        CFI ?BRET_EXT load(1, XDATA, add(CFA_XSP16, literal(-3)))
        CFI ?RET_HIGH load(1, XDATA, add(CFA_XSP16, literal(-4)))
        CFI ?RET_LOW load(1, XDATA, add(CFA_XSP16, literal(-5)))
        MOV     R0,#?V0 + 0
        LCALL   ?PUSH_XSTACK_I_TWO
        CFI CFA_XSP16 add(XSP16, 22)
        LCALL   ?Subroutine8 & 0xFFFF
??CrossCallReturnLabel_17:
        LCALL   ?DEALLOC_XSTACK8
        CFI CFA_XSP16 add(XSP16, 13)
        MOV     A,#0x3
        CFI EndBlock cfiBlock3
        REQUIRE ??Subroutine11_0
        ; // Fall through to label ??Subroutine11_0

        RSEG BANKED_CODE:CODE:NOROOT(0)
??Subroutine11_0:
        CFI Block cfiBlock4 Using cfiCommon0
        CFI NoFunction
        CFI CFA_SP SP+0
        CFI CFA_XSP16 add(XSP16, 21)
        CFI VB load(1, XDATA, add(CFA_XSP16, literal(-9)))
        CFI DPL0 load(1, XDATA, add(CFA_XSP16, literal(-2)))
        CFI DPH0 load(1, XDATA, add(CFA_XSP16, literal(-1)))
        CFI R6 load(1, XDATA, add(CFA_XSP16, literal(-10)))
        CFI R7 load(1, XDATA, add(CFA_XSP16, literal(-6)))
        CFI V0 load(1, XDATA, add(CFA_XSP16, literal(-8)))
        CFI V1 load(1, XDATA, add(CFA_XSP16, literal(-7)))
        CFI ?BRET_EXT load(1, XDATA, add(CFA_XSP16, literal(-3)))
        CFI ?RET_HIGH load(1, XDATA, add(CFA_XSP16, literal(-4)))
        CFI ?RET_LOW load(1, XDATA, add(CFA_XSP16, literal(-5)))
        CFI Invalid
        LCALL   ?DEALLOC_XSTACK8
        CFI CFA_XSP16 add(XSP16, 10)
        CFI Valid
        MOV     R7,#0x2
        LJMP    ?BANKED_LEAVE_XDATA
        CFI EndBlock cfiBlock4
//  586 
//  587 /*********************************************************************
//  588  * @fn      GenericApp_Send_wenshidu_Message
//  589  *
//  590  * @brief   point to point.
//  591  *
//  592  * @param   none
//  593  *
//  594  * @return  none
//  595  */

        RSEG BANKED_CODE:CODE:NOROOT(0)
//  596 void GenericApp_Send_wenshidu_Message( void )//无线发送温湿度函数
GenericApp_Send_wenshidu_Message:
        CFI Block cfiBlock5 Using cfiCommon0
        CFI Function GenericApp_Send_wenshidu_Message
        CODE
//  597 {
        FUNCALL GenericApp_Send_wenshidu_Message, DHT11
        LOCFRAME ISTACK, 0, STACK
        LOCFRAME PSTACK, 0, STACK
        LOCFRAME XSTACK, 20, STACK
        LOCFRAME IOVERLAY, 0, STATIC
        LOCFRAME DOVERLAY, 0, STATIC
        ARGFRAME ISTACK, 0, STACK
        ARGFRAME PSTACK, 0, STACK
        ARGFRAME XSTACK, 20, STACK
        ARGFRAME IOVERLAY, 0, STATIC
        ARGFRAME DOVERLAY, 0, STATIC
        FUNCALL GenericApp_Send_wenshidu_Message, osal_memcpy
        LOCFRAME ISTACK, 0, STACK
        LOCFRAME PSTACK, 0, STACK
        LOCFRAME XSTACK, 23, STACK
        LOCFRAME IOVERLAY, 0, STATIC
        LOCFRAME DOVERLAY, 0, STATIC
        ARGFRAME ISTACK, 0, STACK
        ARGFRAME PSTACK, 0, STACK
        ARGFRAME XSTACK, 23, STACK
        ARGFRAME IOVERLAY, 0, STATIC
        ARGFRAME DOVERLAY, 0, STATIC
        FUNCALL GenericApp_Send_wenshidu_Message, osal_memcpy
        LOCFRAME ISTACK, 0, STACK
        LOCFRAME PSTACK, 0, STACK
        LOCFRAME XSTACK, 23, STACK
        LOCFRAME IOVERLAY, 0, STATIC
        LOCFRAME DOVERLAY, 0, STATIC
        ARGFRAME ISTACK, 0, STACK
        ARGFRAME PSTACK, 0, STACK
        ARGFRAME XSTACK, 23, STACK
        ARGFRAME IOVERLAY, 0, STATIC
        ARGFRAME DOVERLAY, 0, STATIC
        FUNCALL GenericApp_Send_wenshidu_Message, osal_memcpy
        LOCFRAME ISTACK, 0, STACK
        LOCFRAME PSTACK, 0, STACK
        LOCFRAME XSTACK, 23, STACK
        LOCFRAME IOVERLAY, 0, STATIC
        LOCFRAME DOVERLAY, 0, STATIC
        ARGFRAME ISTACK, 0, STACK
        ARGFRAME PSTACK, 0, STACK
        ARGFRAME XSTACK, 23, STACK
        ARGFRAME IOVERLAY, 0, STATIC
        ARGFRAME DOVERLAY, 0, STATIC
        FUNCALL GenericApp_Send_wenshidu_Message, AF_DataRequest
        LOCFRAME ISTACK, 0, STACK
        LOCFRAME PSTACK, 0, STACK
        LOCFRAME XSTACK, 29, STACK
        LOCFRAME IOVERLAY, 0, STATIC
        LOCFRAME DOVERLAY, 0, STATIC
        ARGFRAME ISTACK, 0, STACK
        ARGFRAME PSTACK, 0, STACK
        ARGFRAME XSTACK, 29, STACK
        ARGFRAME IOVERLAY, 0, STATIC
        ARGFRAME DOVERLAY, 0, STATIC
        MOV     A,#-0xb
        LCALL   ?BANKED_ENTER_XDATA
        CFI DPH0 load(1, XDATA, add(CFA_XSP16, literal(-1)))
        CFI DPL0 load(1, XDATA, add(CFA_XSP16, literal(-2)))
        CFI ?BRET_EXT load(1, XDATA, add(CFA_XSP16, literal(-3)))
        CFI ?RET_HIGH load(1, XDATA, add(CFA_XSP16, literal(-4)))
        CFI ?RET_LOW load(1, XDATA, add(CFA_XSP16, literal(-5)))
        CFI R7 load(1, XDATA, add(CFA_XSP16, literal(-6)))
        CFI V2 load(1, XDATA, add(CFA_XSP16, literal(-7)))
        CFI V1 load(1, XDATA, add(CFA_XSP16, literal(-8)))
        CFI V0 load(1, XDATA, add(CFA_XSP16, literal(-9)))
        CFI VB load(1, XDATA, add(CFA_XSP16, literal(-10)))
        CFI R6 load(1, XDATA, add(CFA_XSP16, literal(-11)))
        CFI CFA_SP SP+0
        CFI CFA_XSP16 add(XSP16, 11)
        ; Saved register size: 11
        ; Auto size: 9
        MOV     A,#-0x9
        LCALL   ?ALLOC_XSTACK8
        CFI CFA_XSP16 add(XSP16, 20)
//  598   byte temp[2], humidity[2], strTemp[5];
//  599 
//  600   DHT11();             //获取温湿度
        ; Setup parameters for call to function DHT11
        LCALL   ?Subroutine5 & 0xFFFF
//  601 
//  602   //将温湿度的转换成字符串,供LCD显示  
//  603   temp[0] = wendu_shi+0x30;
??CrossCallReturnLabel_11:
        PUSH    A
        CFI CFA_SP SP+-1
        MOV     A,#0x2
        LCALL   ?XSTACK_DISP0_8
        POP     A
        CFI CFA_SP SP+0
        MOVX    @DPTR,A
//  604   temp[1] = wendu_ge+0x30;
        MOV     DPTR,#wendu_ge
        MOVX    A,@DPTR
        ADD     A,#0x30
        PUSH    A
        CFI CFA_SP SP+-1
        MOV     A,#0x3
        LCALL   ?XSTACK_DISP0_8
        POP     A
        CFI CFA_SP SP+0
        MOVX    @DPTR,A
//  605   //temp[2] = '\0';
//  606   humidity[0] = shidu_shi+0x30;
        MOV     DPTR,#shidu_shi
        MOVX    A,@DPTR
        LCALL   ?Subroutine9 & 0xFFFF
//  607   humidity[1] = shidu_ge+0x30;
??CrossCallReturnLabel_21:
        MOV     DPTR,#shidu_ge
        MOVX    A,@DPTR
        ADD     A,#0x30
        PUSH    A
        CFI CFA_SP SP+-1
        MOV     A,#0x1
        LCALL   ?XSTACK_DISP0_8
        POP     A
        CFI CFA_SP SP+0
        MOVX    @DPTR,A
//  608   //humidity[2] = '\0';
//  609   //将数据整合后方便发给协调器显示
//  610   osal_memcpy(strTemp, temp, 2); 
        ; Setup parameters for call to function osal_memcpy
        MOV     A,#0x2
        LCALL   ?XSTACK_DISP0_8
        MOV     R1,DPL
        MOV     R2,DPH
        MOV     ?V0 + 0,R1
        MOV     ?V0 + 1,R2
        MOV     ?V0 + 2,#0x0
        MOV     R0,#?V0 + 0
        LCALL   ?PUSH_XSTACK_I_THREE
        CFI CFA_XSP16 add(XSP16, 23)
        MOV     R4,#0x2
        MOV     R5,#0x0
        MOV     A,#0x7
        LCALL   ?XSTACK_DISP0_8
        MOV     R2,DPL
        MOV     R3,DPH
        LCALL   ??osal_memcpy?relay
        MOV     A,#0x3
        LCALL   ?DEALLOC_XSTACK8
        CFI CFA_XSP16 add(XSP16, 20)
//  611   osal_memcpy(&strTemp[2], "&", 1);
        ; Setup parameters for call to function osal_memcpy
        MOV     ?V0 + 0,#`?<Constant "&">` & 0xff
        MOV     ?V0 + 1,#(`?<Constant "&">` >> 8) & 0xff
        MOV     R0,#?V0 + 0
        LCALL   ?PUSH_XSTACK_I_THREE
        CFI CFA_XSP16 add(XSP16, 23)
        MOV     R4,#0x1
        MOV     R5,#0x0
        MOV     A,#0x9
        LCALL   ?XSTACK_DISP0_8
        MOV     R2,DPL
        MOV     R3,DPH
        LCALL   ??osal_memcpy?relay
        MOV     A,#0x3
        LCALL   ?DEALLOC_XSTACK8
        CFI CFA_XSP16 add(XSP16, 20)
//  612   osal_memcpy(&strTemp[3], humidity, 2);
        ; Setup parameters for call to function osal_memcpy
        MOV     DPL,?XSP + 0
        MOV     DPH,?XSP + 1
        MOV     R1,DPL
        MOV     R2,DPH
        MOV     ?V0 + 0,R1
        MOV     ?V0 + 1,R2
        MOV     R0,#?V0 + 0
        LCALL   ?PUSH_XSTACK_I_THREE
        CFI CFA_XSP16 add(XSP16, 23)
        MOV     R4,#0x2
        MOV     R5,#0x0
        MOV     A,#0xa
        LCALL   ?XSTACK_DISP0_8
        MOV     R2,DPL
        MOV     R3,DPH
        LCALL   ??osal_memcpy?relay
        MOV     A,#0x3
        LCALL   ?DEALLOC_XSTACK8
        CFI CFA_XSP16 add(XSP16, 20)
//  613  
//  614   AF_DataRequest( &GenericApp_DstAddr, &GenericApp_epDesc,
//  615                        GENERICAPP_wenshidu_CLUSTERID,
//  616                        5,
//  617                        strTemp,
//  618                        &GenericApp_TransID,
//  619                        AF_DISCV_ROUTE,
//  620                        AF_DEFAULT_RADIUS ) ;
        ; Setup parameters for call to function AF_DataRequest
        MOV     ?V0 + 0,#0x1e
        MOV     R0,#?V0 + 0
        LCALL   ?PUSH_XSTACK_I_ONE
        CFI CFA_XSP16 add(XSP16, 21)
        MOV     ?V0 + 0,#GenericApp_TransID & 0xff
        MOV     ?V0 + 1,#(GenericApp_TransID >> 8) & 0xff
        MOV     R0,#?V0 + 0
        LCALL   ?PUSH_XSTACK_I_TWO
        CFI CFA_XSP16 add(XSP16, 23)
        MOV     A,#0x7
        LCALL   ?XSTACK_DISP0_8
        MOV     ?V0 + 0,DPL
        MOV     ?V0 + 1,DPH
        MOV     R0,#?V0 + 0
        LCALL   ?PUSH_XSTACK_I_TWO
        CFI CFA_XSP16 add(XSP16, 25)
        MOV     ?V0 + 0,#0x5
        MOV     ?V0 + 1,#0x0
        MOV     R0,#?V0 + 0
        LCALL   ?PUSH_XSTACK_I_TWO
        CFI CFA_XSP16 add(XSP16, 27)
        MOV     ?V0 + 0,#0x3
        MOV     R0,#?V0 + 0
        LCALL   ?PUSH_XSTACK_I_TWO
        CFI CFA_XSP16 add(XSP16, 29)
        LCALL   ?Subroutine8 & 0xFFFF
??CrossCallReturnLabel_18:
        LCALL   ?DEALLOC_XSTACK8
        CFI CFA_XSP16 add(XSP16, 20)
//  621 }
        MOV     A,#0x9
        LCALL   ?DEALLOC_XSTACK8
        CFI CFA_XSP16 add(XSP16, 11)
        MOV     R7,#0x3
        LJMP    ?BANKED_LEAVE_XDATA
        CFI EndBlock cfiBlock5

        RSEG BANKED_CODE:CODE:NOROOT(0)
?Subroutine8:
        CFI Block cfiCond6 Using cfiCommon0
        CFI NoFunction
        CFI Conditional ??CrossCallReturnLabel_16
        CFI R6 load(1, XDATA, add(CFA_XSP16, literal(-10)))
        CFI VB load(1, XDATA, add(CFA_XSP16, literal(-9)))
        CFI V0 load(1, XDATA, add(CFA_XSP16, literal(-8)))
        CFI V1 load(1, XDATA, add(CFA_XSP16, literal(-7)))
        CFI R7 load(1, XDATA, add(CFA_XSP16, literal(-6)))
        CFI ?RET_LOW load(1, XDATA, add(CFA_XSP16, literal(-5)))
        CFI ?RET_HIGH load(1, XDATA, add(CFA_XSP16, literal(-4)))
        CFI ?BRET_EXT load(1, XDATA, add(CFA_XSP16, literal(-3)))
        CFI DPL0 load(1, XDATA, add(CFA_XSP16, literal(-2)))
        CFI DPH0 load(1, XDATA, add(CFA_XSP16, literal(-1)))
        CFI CFA_SP SP+0
        CFI CFA_XSP16 add(XSP16, 30)
        CFI Block cfiCond7 Using cfiCommon0
        CFI (cfiCond7) NoFunction
        CFI (cfiCond7) Conditional ??CrossCallReturnLabel_17
        CFI (cfiCond7) R6 load(1, XDATA, add(CFA_XSP16, literal(-10)))
        CFI (cfiCond7) VB load(1, XDATA, add(CFA_XSP16, literal(-9)))
        CFI (cfiCond7) V0 load(1, XDATA, add(CFA_XSP16, literal(-8)))
        CFI (cfiCond7) V1 load(1, XDATA, add(CFA_XSP16, literal(-7)))
        CFI (cfiCond7) R7 load(1, XDATA, add(CFA_XSP16, literal(-6)))
        CFI (cfiCond7) ?RET_LOW load(1, XDATA, add(CFA_XSP16, literal(-5)))
        CFI (cfiCond7) ?RET_HIGH load(1, XDATA, add(CFA_XSP16, literal(-4)))
        CFI (cfiCond7) ?BRET_EXT load(1, XDATA, add(CFA_XSP16, literal(-3)))
        CFI (cfiCond7) DPL0 load(1, XDATA, add(CFA_XSP16, literal(-2)))
        CFI (cfiCond7) DPH0 load(1, XDATA, add(CFA_XSP16, literal(-1)))
        CFI (cfiCond7) CFA_SP SP+0
        CFI (cfiCond7) CFA_XSP16 add(XSP16, 22)
        CFI Block cfiCond8 Using cfiCommon0
        CFI (cfiCond8) NoFunction
        CFI (cfiCond8) Conditional ??CrossCallReturnLabel_17
        CFI (cfiCond8) R6 load(1, XDATA, add(CFA_XSP16, literal(-10)))
        CFI (cfiCond8) VB load(1, XDATA, add(CFA_XSP16, literal(-9)))
        CFI (cfiCond8) V0 load(1, XDATA, add(CFA_XSP16, literal(-8)))
        CFI (cfiCond8) V1 load(1, XDATA, add(CFA_XSP16, literal(-7)))
        CFI (cfiCond8) R7 load(1, XDATA, add(CFA_XSP16, literal(-6)))
        CFI (cfiCond8) ?RET_LOW load(1, XDATA, add(CFA_XSP16, literal(-5)))
        CFI (cfiCond8) ?RET_HIGH load(1, XDATA, add(CFA_XSP16, literal(-4)))
        CFI (cfiCond8) ?BRET_EXT load(1, XDATA, add(CFA_XSP16, literal(-3)))
        CFI (cfiCond8) DPL0 load(1, XDATA, add(CFA_XSP16, literal(-2)))
        CFI (cfiCond8) DPH0 load(1, XDATA, add(CFA_XSP16, literal(-1)))
        CFI (cfiCond8) CFA_SP SP+0
        CFI (cfiCond8) CFA_XSP16 add(XSP16, 22)
        CFI Block cfiCond9 Using cfiCommon0
        CFI (cfiCond9) NoFunction
        CFI (cfiCond9) Conditional ??CrossCallReturnLabel_18
        CFI (cfiCond9) R6 load(1, XDATA, add(CFA_XSP16, literal(-11)))
        CFI (cfiCond9) VB load(1, XDATA, add(CFA_XSP16, literal(-10)))
        CFI (cfiCond9) V0 load(1, XDATA, add(CFA_XSP16, literal(-9)))
        CFI (cfiCond9) V1 load(1, XDATA, add(CFA_XSP16, literal(-8)))
        CFI (cfiCond9) V2 load(1, XDATA, add(CFA_XSP16, literal(-7)))
        CFI (cfiCond9) R7 load(1, XDATA, add(CFA_XSP16, literal(-6)))
        CFI (cfiCond9) ?RET_LOW load(1, XDATA, add(CFA_XSP16, literal(-5)))
        CFI (cfiCond9) ?RET_HIGH load(1, XDATA, add(CFA_XSP16, literal(-4)))
        CFI (cfiCond9) ?BRET_EXT load(1, XDATA, add(CFA_XSP16, literal(-3)))
        CFI (cfiCond9) DPL0 load(1, XDATA, add(CFA_XSP16, literal(-2)))
        CFI (cfiCond9) DPH0 load(1, XDATA, add(CFA_XSP16, literal(-1)))
        CFI (cfiCond9) CFA_SP SP+0
        CFI (cfiCond9) CFA_XSP16 add(XSP16, 29)
        CFI Block cfiCond10 Using cfiCommon0
        CFI (cfiCond10) NoFunction
        CFI (cfiCond10) Conditional ??CrossCallReturnLabel_19
        CFI (cfiCond10) R6 load(1, XDATA, add(CFA_XSP16, literal(-10)))
        CFI (cfiCond10) VB load(1, XDATA, add(CFA_XSP16, literal(-9)))
        CFI (cfiCond10) V0 load(1, XDATA, add(CFA_XSP16, literal(-8)))
        CFI (cfiCond10) V1 load(1, XDATA, add(CFA_XSP16, literal(-7)))
        CFI (cfiCond10) R7 load(1, XDATA, add(CFA_XSP16, literal(-6)))
        CFI (cfiCond10) ?RET_LOW load(1, XDATA, add(CFA_XSP16, literal(-5)))
        CFI (cfiCond10) ?RET_HIGH load(1, XDATA, add(CFA_XSP16, literal(-4)))
        CFI (cfiCond10) ?BRET_EXT load(1, XDATA, add(CFA_XSP16, literal(-3)))
        CFI (cfiCond10) DPL0 load(1, XDATA, add(CFA_XSP16, literal(-2)))
        CFI (cfiCond10) DPH0 load(1, XDATA, add(CFA_XSP16, literal(-1)))
        CFI (cfiCond10) CFA_SP SP+0
        CFI (cfiCond10) CFA_XSP16 add(XSP16, 23)
        CFI Block cfiCond11 Using cfiCommon0
        CFI (cfiCond11) NoFunction
        CFI (cfiCond11) Conditional ??CrossCallReturnLabel_20
        CFI (cfiCond11) R6 load(1, XDATA, add(CFA_XSP16, literal(-10)))
        CFI (cfiCond11) VB load(1, XDATA, add(CFA_XSP16, literal(-9)))
        CFI (cfiCond11) V0 load(1, XDATA, add(CFA_XSP16, literal(-8)))
        CFI (cfiCond11) V1 load(1, XDATA, add(CFA_XSP16, literal(-7)))
        CFI (cfiCond11) R7 load(1, XDATA, add(CFA_XSP16, literal(-6)))
        CFI (cfiCond11) ?RET_LOW load(1, XDATA, add(CFA_XSP16, literal(-5)))
        CFI (cfiCond11) ?RET_HIGH load(1, XDATA, add(CFA_XSP16, literal(-4)))
        CFI (cfiCond11) ?BRET_EXT load(1, XDATA, add(CFA_XSP16, literal(-3)))
        CFI (cfiCond11) DPL0 load(1, XDATA, add(CFA_XSP16, literal(-2)))
        CFI (cfiCond11) DPH0 load(1, XDATA, add(CFA_XSP16, literal(-1)))
        CFI (cfiCond11) CFA_SP SP+0
        CFI (cfiCond11) CFA_XSP16 add(XSP16, 21)
        CFI Block cfiPicker12 Using cfiCommon1
        CFI (cfiPicker12) NoFunction
        CFI (cfiPicker12) Picker
        MOV     R1,#0x20
        MOV     R4,#GenericApp_epDesc & 0xff
        MOV     R5,#(GenericApp_epDesc >> 8) & 0xff
        MOV     R2,#GenericApp_DstAddr & 0xff
        MOV     R3,#(GenericApp_DstAddr >> 8) & 0xff
        LCALL   ??AF_DataRequest?relay
        MOV     A,#0x9
        RET
        CFI EndBlock cfiCond6
        CFI EndBlock cfiCond7
        CFI EndBlock cfiCond8
        CFI EndBlock cfiCond9
        CFI EndBlock cfiCond10
        CFI EndBlock cfiCond11
        CFI EndBlock cfiPicker12

        RSEG BANKED_CODE:CODE:NOROOT(0)
?Subroutine5:
        CFI Block cfiCond13 Using cfiCommon0
        CFI NoFunction
        CFI Conditional ??CrossCallReturnLabel_10
        CFI R6 load(1, XDATA, add(CFA_XSP16, literal(-10)))
        CFI VB load(1, XDATA, add(CFA_XSP16, literal(-9)))
        CFI V0 load(1, XDATA, add(CFA_XSP16, literal(-8)))
        CFI V1 load(1, XDATA, add(CFA_XSP16, literal(-7)))
        CFI R7 load(1, XDATA, add(CFA_XSP16, literal(-6)))
        CFI ?RET_LOW load(1, XDATA, add(CFA_XSP16, literal(-5)))
        CFI ?RET_HIGH load(1, XDATA, add(CFA_XSP16, literal(-4)))
        CFI ?BRET_EXT load(1, XDATA, add(CFA_XSP16, literal(-3)))
        CFI DPL0 load(1, XDATA, add(CFA_XSP16, literal(-2)))
        CFI DPH0 load(1, XDATA, add(CFA_XSP16, literal(-1)))
        CFI CFA_SP SP+0
        CFI CFA_XSP16 add(XSP16, 21)
        CFI Block cfiCond14 Using cfiCommon0
        CFI (cfiCond14) NoFunction
        CFI (cfiCond14) Conditional ??CrossCallReturnLabel_11
        CFI (cfiCond14) R6 load(1, XDATA, add(CFA_XSP16, literal(-11)))
        CFI (cfiCond14) VB load(1, XDATA, add(CFA_XSP16, literal(-10)))
        CFI (cfiCond14) V0 load(1, XDATA, add(CFA_XSP16, literal(-9)))
        CFI (cfiCond14) V1 load(1, XDATA, add(CFA_XSP16, literal(-8)))
        CFI (cfiCond14) V2 load(1, XDATA, add(CFA_XSP16, literal(-7)))
        CFI (cfiCond14) R7 load(1, XDATA, add(CFA_XSP16, literal(-6)))
        CFI (cfiCond14) ?RET_LOW load(1, XDATA, add(CFA_XSP16, literal(-5)))
        CFI (cfiCond14) ?RET_HIGH load(1, XDATA, add(CFA_XSP16, literal(-4)))
        CFI (cfiCond14) ?BRET_EXT load(1, XDATA, add(CFA_XSP16, literal(-3)))
        CFI (cfiCond14) DPL0 load(1, XDATA, add(CFA_XSP16, literal(-2)))
        CFI (cfiCond14) DPH0 load(1, XDATA, add(CFA_XSP16, literal(-1)))
        CFI (cfiCond14) CFA_SP SP+0
        CFI (cfiCond14) CFA_XSP16 add(XSP16, 20)
        CFI Block cfiPicker15 Using cfiCommon1
        CFI (cfiPicker15) NoFunction
        CFI (cfiPicker15) Picker
        LCALL   ??DHT11?relay
        MOV     DPTR,#wendu_shi
        MOVX    A,@DPTR
        ADD     A,#0x30
        RET
        CFI EndBlock cfiCond13
        CFI EndBlock cfiCond14
        CFI EndBlock cfiPicker15
//  622 

        RSEG BANKED_CODE:CODE:NOROOT(0)
//  623 void GenericApp_Send_Guangqiang_Message(void)//无线发送光强信息函数
GenericApp_Send_Guangqiang_Message:
        CFI Block cfiBlock16 Using cfiCommon0
        CFI Function GenericApp_Send_Guangqiang_Message
        CODE
//  624 {
        FUNCALL GenericApp_Send_Guangqiang_Message, myApp_ReadLightLevel
        LOCFRAME ISTACK, 0, STACK
        LOCFRAME PSTACK, 0, STACK
        LOCFRAME XSTACK, 13, STACK
        LOCFRAME IOVERLAY, 0, STATIC
        LOCFRAME DOVERLAY, 0, STATIC
        ARGFRAME ISTACK, 0, STACK
        ARGFRAME PSTACK, 0, STACK
        ARGFRAME XSTACK, 13, STACK
        ARGFRAME IOVERLAY, 0, STATIC
        ARGFRAME DOVERLAY, 0, STATIC
        FUNCALL GenericApp_Send_Guangqiang_Message, AF_DataRequest
        LOCFRAME ISTACK, 0, STACK
        LOCFRAME PSTACK, 0, STACK
        LOCFRAME XSTACK, 22, STACK
        LOCFRAME IOVERLAY, 0, STATIC
        LOCFRAME DOVERLAY, 0, STATIC
        ARGFRAME ISTACK, 0, STACK
        ARGFRAME PSTACK, 0, STACK
        ARGFRAME XSTACK, 22, STACK
        ARGFRAME IOVERLAY, 0, STATIC
        ARGFRAME DOVERLAY, 0, STATIC
        MOV     A,#-0xa
        LCALL   ?BANKED_ENTER_XDATA
        CFI DPH0 load(1, XDATA, add(CFA_XSP16, literal(-1)))
        CFI DPL0 load(1, XDATA, add(CFA_XSP16, literal(-2)))
        CFI ?BRET_EXT load(1, XDATA, add(CFA_XSP16, literal(-3)))
        CFI ?RET_HIGH load(1, XDATA, add(CFA_XSP16, literal(-4)))
        CFI ?RET_LOW load(1, XDATA, add(CFA_XSP16, literal(-5)))
        CFI R7 load(1, XDATA, add(CFA_XSP16, literal(-6)))
        CFI V1 load(1, XDATA, add(CFA_XSP16, literal(-7)))
        CFI V0 load(1, XDATA, add(CFA_XSP16, literal(-8)))
        CFI VB load(1, XDATA, add(CFA_XSP16, literal(-9)))
        CFI R6 load(1, XDATA, add(CFA_XSP16, literal(-10)))
        CFI CFA_SP SP+0
        CFI CFA_XSP16 add(XSP16, 10)
        ; Saved register size: 10
        ; Auto size: 3
        MOV     A,#-0x3
        LCALL   ?ALLOC_XSTACK8
        CFI CFA_XSP16 add(XSP16, 13)
//  625   unsigned char theMessageData[3] ;
//  626   //char guangqiang_xianshi[13];
//  627   uint16 LightLevel;
//  628   LightLevel = myApp_ReadLightLevel();//读取光强值
        ; Setup parameters for call to function myApp_ReadLightLevel
        LCALL   ?Subroutine6 & 0xFFFF
//  629   theMessageData[0] = LightLevel / 10 + '0';
??CrossCallReturnLabel_13:
        LCALL   ?US_DIV_MOD
        LCALL   ?Subroutine2 & 0xFFFF
//  630   theMessageData[1] = LightLevel % 10 + '0';
??CrossCallReturnLabel_25:
        LCALL   ?US_DIV_MOD
        MOV     A,R2
        ADD     A,#0x30
        PUSH    A
        CFI CFA_SP SP+-1
        MOV     A,#0x1
        LCALL   ?XSTACK_DISP0_8
        POP     A
        CFI CFA_SP SP+0
        LCALL   ?Subroutine4 & 0xFFFF
//  631   theMessageData[2] = sensorID;
??CrossCallReturnLabel_6:
        PUSH    A
        CFI CFA_SP SP+-1
        MOV     A,#0x2
        LCALL   ?XSTACK_DISP0_8
        POP     A
        CFI CFA_SP SP+0
        LCALL   ?Subroutine3 & 0xFFFF
//  632   
//  633   //osal_memcpy(guangqiang_xianshi, "guangqiang:", 11);
//  634   //osal_memcpy(&guangqiang_xianshi[11], theMessageData, 2);
//  635   //HalLcdWriteString(guangqiang_xianshi, 3);
//  636   
//  637   AF_DataRequest( &GenericApp_DstAddr, &GenericApp_epDesc,
//  638                        GenericApp_Guangqiang_CLUSTERID,
//  639                        3,
//  640                        theMessageData,
//  641                        &GenericApp_TransID,
//  642                        AF_DISCV_ROUTE, AF_DEFAULT_RADIUS );
??CrossCallReturnLabel_1:
        LCALL   ?PUSH_XSTACK_I_ONE
        CFI CFA_XSP16 add(XSP16, 14)
        MOV     ?V0 + 0,#GenericApp_TransID & 0xff
        MOV     ?V0 + 1,#(GenericApp_TransID >> 8) & 0xff
        MOV     R0,#?V0 + 0
        LCALL   ?PUSH_XSTACK_I_TWO
        CFI CFA_XSP16 add(XSP16, 16)
        MOV     A,#0x3
        LCALL   ?XSTACK_DISP0_8
        MOV     ?V0 + 0,DPL
        MOV     ?V0 + 1,DPH
        MOV     R0,#?V0 + 0
        LCALL   ?PUSH_XSTACK_I_TWO
        CFI CFA_XSP16 add(XSP16, 18)
        MOV     ?V0 + 0,#0x3
        MOV     ?V0 + 1,#0x0
        MOV     R0,#?V0 + 0
        LCALL   ?PUSH_XSTACK_I_TWO
        CFI CFA_XSP16 add(XSP16, 20)
        MOV     ?V0 + 0,#0x4
        LJMP    ?Subroutine0 & 0xFFFF
        CFI EndBlock cfiBlock16
//  643 }

        RSEG BANKED_CODE:CODE:NOROOT(0)
?Subroutine6:
        CFI Block cfiCond17 Using cfiCommon0
        CFI NoFunction
        CFI Conditional ??CrossCallReturnLabel_12
        CFI R6 load(1, XDATA, add(CFA_XSP16, literal(-10)))
        CFI VB load(1, XDATA, add(CFA_XSP16, literal(-9)))
        CFI V0 load(1, XDATA, add(CFA_XSP16, literal(-8)))
        CFI V1 load(1, XDATA, add(CFA_XSP16, literal(-7)))
        CFI R7 load(1, XDATA, add(CFA_XSP16, literal(-6)))
        CFI ?RET_LOW load(1, XDATA, add(CFA_XSP16, literal(-5)))
        CFI ?RET_HIGH load(1, XDATA, add(CFA_XSP16, literal(-4)))
        CFI ?BRET_EXT load(1, XDATA, add(CFA_XSP16, literal(-3)))
        CFI DPL0 load(1, XDATA, add(CFA_XSP16, literal(-2)))
        CFI DPH0 load(1, XDATA, add(CFA_XSP16, literal(-1)))
        CFI CFA_SP SP+0
        CFI CFA_XSP16 add(XSP16, 21)
        CFI Block cfiCond18 Using cfiCommon0
        CFI (cfiCond18) NoFunction
        CFI (cfiCond18) Conditional ??CrossCallReturnLabel_13
        CFI (cfiCond18) R6 load(1, XDATA, add(CFA_XSP16, literal(-10)))
        CFI (cfiCond18) VB load(1, XDATA, add(CFA_XSP16, literal(-9)))
        CFI (cfiCond18) V0 load(1, XDATA, add(CFA_XSP16, literal(-8)))
        CFI (cfiCond18) V1 load(1, XDATA, add(CFA_XSP16, literal(-7)))
        CFI (cfiCond18) R7 load(1, XDATA, add(CFA_XSP16, literal(-6)))
        CFI (cfiCond18) ?RET_LOW load(1, XDATA, add(CFA_XSP16, literal(-5)))
        CFI (cfiCond18) ?RET_HIGH load(1, XDATA, add(CFA_XSP16, literal(-4)))
        CFI (cfiCond18) ?BRET_EXT load(1, XDATA, add(CFA_XSP16, literal(-3)))
        CFI (cfiCond18) DPL0 load(1, XDATA, add(CFA_XSP16, literal(-2)))
        CFI (cfiCond18) DPH0 load(1, XDATA, add(CFA_XSP16, literal(-1)))
        CFI (cfiCond18) CFA_SP SP+0
        CFI (cfiCond18) CFA_XSP16 add(XSP16, 13)
        CFI Block cfiPicker19 Using cfiCommon1
        CFI (cfiPicker19) NoFunction
        CFI (cfiPicker19) Picker
        LCALL   ??myApp_ReadLightLevel?relay
        MOV     ?V0 + 0,R2
        MOV     ?V0 + 1,R3
        MOV     R4,?V0 + 0
        MOV     R5,?V0 + 1
        MOV     A,R4
        MOV     R0,A
        MOV     A,R5
        MOV     R1,A
        MOV     R2,#0xa
        MOV     R3,#0x0
        RET
        CFI EndBlock cfiCond17
        CFI EndBlock cfiCond18
        CFI EndBlock cfiPicker19
//  644 
//  645 /*********************************************************************
//  646  */
//  647 /*********************************************************************
//  648 读取光强函数
//  649 */

        RSEG BANKED_CODE:CODE:NOROOT(0)
//  650 uint16 myApp_ReadLightLevel( void )
myApp_ReadLightLevel:
        CFI Block cfiBlock20 Using cfiCommon0
        CFI Function myApp_ReadLightLevel
        CODE
//  651 {
        ; Saved register size: 0
        ; Auto size: 0
//  652   uint16 reading = 0;
//  653   
//  654   /* Enable channel */
//  655   ADCCFG |= 0x40;
        ORL     0xf2,#0x40
//  656   
//  657   /* writing to this register starts the extra conversion */
//  658   ADCCON3 = 0x86;
        MOV     0xb6,#-0x7a
//  659   
//  660   /* Wait for the conversion to be done */
//  661   while (!(ADCCON1 & 0x80));
??myApp_ReadLightLevel_0:
        MOV     A,0xb4
        MOV     C,0xE0 /* A   */.7
        JNC     ??myApp_ReadLightLevel_0
//  662   
//  663   /* Disable channel after done conversion */
//  664   ADCCFG &= (0x40 ^ 0xFF);
        ANL     0xf2,#0xbf
        CFI EndBlock cfiBlock20
//  665   
//  666   /* Read the result */
//  667   reading = ADCH;
        REQUIRE ?Subroutine1
        REQUIRE ADCCFG
        REQUIRE ADCCON3
        REQUIRE ADCCON1
        REQUIRE ADCH
        ; // Fall through to label ?Subroutine1
//  668   reading |= (int16) (ADCH << 8); 
//  669   
//  670   reading >>= 8;
//  671   
//  672   return (reading);
//  673 } 

        RSEG BANKED_CODE:CODE:NOROOT(0)
?Subroutine1:
        CFI Block cfiBlock21 Using cfiCommon0
        CFI NoFunction
        MOV     A,0xbb
        MOV     A,0xbb
        MOV     R2,A
        CLR     A
        MOV     R3,A
        LJMP    ?BRET
        CFI EndBlock cfiBlock21
//  674 

        RSEG BANKED_CODE:CODE:NOROOT(0)
//  675 void GenericApp_Send_GAN_Message( void )//发送光强函数
GenericApp_Send_GAN_Message:
        CFI Block cfiBlock22 Using cfiCommon0
        CFI Function GenericApp_Send_GAN_Message
        CODE
//  676 {
        FUNCALL GenericApp_Send_GAN_Message, myApp_ReadGasLevel
        LOCFRAME ISTACK, 0, STACK
        LOCFRAME PSTACK, 0, STACK
        LOCFRAME XSTACK, 14, STACK
        LOCFRAME IOVERLAY, 0, STATIC
        LOCFRAME DOVERLAY, 0, STATIC
        ARGFRAME ISTACK, 0, STACK
        ARGFRAME PSTACK, 0, STACK
        ARGFRAME XSTACK, 14, STACK
        ARGFRAME IOVERLAY, 0, STATIC
        ARGFRAME DOVERLAY, 0, STATIC
        FUNCALL GenericApp_Send_GAN_Message, AF_DataRequest
        LOCFRAME ISTACK, 0, STACK
        LOCFRAME PSTACK, 0, STACK
        LOCFRAME XSTACK, 23, STACK
        LOCFRAME IOVERLAY, 0, STATIC
        LOCFRAME DOVERLAY, 0, STATIC
        ARGFRAME ISTACK, 0, STACK
        ARGFRAME PSTACK, 0, STACK
        ARGFRAME XSTACK, 23, STACK
        ARGFRAME IOVERLAY, 0, STATIC
        ARGFRAME DOVERLAY, 0, STATIC
        MOV     A,#-0xa
        LCALL   ?BANKED_ENTER_XDATA
        CFI DPH0 load(1, XDATA, add(CFA_XSP16, literal(-1)))
        CFI DPL0 load(1, XDATA, add(CFA_XSP16, literal(-2)))
        CFI ?BRET_EXT load(1, XDATA, add(CFA_XSP16, literal(-3)))
        CFI ?RET_HIGH load(1, XDATA, add(CFA_XSP16, literal(-4)))
        CFI ?RET_LOW load(1, XDATA, add(CFA_XSP16, literal(-5)))
        CFI R7 load(1, XDATA, add(CFA_XSP16, literal(-6)))
        CFI V1 load(1, XDATA, add(CFA_XSP16, literal(-7)))
        CFI V0 load(1, XDATA, add(CFA_XSP16, literal(-8)))
        CFI VB load(1, XDATA, add(CFA_XSP16, literal(-9)))
        CFI R6 load(1, XDATA, add(CFA_XSP16, literal(-10)))
        CFI CFA_SP SP+0
        CFI CFA_XSP16 add(XSP16, 10)
        ; Saved register size: 10
        ; Auto size: 4
        MOV     A,#-0x4
        LCALL   ?ALLOC_XSTACK8
        CFI CFA_XSP16 add(XSP16, 14)
//  677   //char strGan[10];
//  678   unsigned char theMessageData[4] ;
//  679   uint16 GasLevel;
//  680   GasLevel = myApp_ReadGasLevel();
        ; Setup parameters for call to function myApp_ReadGasLevel
        LCALL   ?Subroutine7 & 0xFFFF
//  681   /*HalLedSet (HAL_LED_1, HAL_LED_MODE_OFF);
//  682   if(GasLevel>90)
//  683   {
//  684     HalLedSet (HAL_LED_1, HAL_LED_MODE_ON);
//  685   }
//  686   else
//  687   {
//  688     HalLedSet (HAL_LED_1, HAL_LED_MODE_OFF);
//  689   }*/
//  690   theMessageData[0] = GasLevel / 100 + '0';
??CrossCallReturnLabel_15:
        MOV     R2,#0x64
        MOV     R3,#0x0
        LCALL   ?US_DIV_MOD
        LCALL   ?Subroutine2 & 0xFFFF
//  691   theMessageData[1] = GasLevel / 10%10 + '0';
??CrossCallReturnLabel_26:
        LCALL   ?US_DIV_MOD
        MOV     R2,#0xa
        MOV     R3,#0x0
        LCALL   ?US_DIV_MOD
        MOV     A,R2
        ADD     A,#0x30
        PUSH    A
        CFI CFA_SP SP+-1
        MOV     A,#0x1
        LCALL   ?XSTACK_DISP0_8
        POP     A
        CFI CFA_SP SP+0
        LCALL   ??Subroutine12_0 & 0xFFFF
//  692   theMessageData[2] = GasLevel % 10 + '0';
??CrossCallReturnLabel_28:
        LCALL   ?US_DIV_MOD
        MOV     A,R2
        ADD     A,#0x30
        PUSH    A
        CFI CFA_SP SP+-1
        MOV     A,#0x2
        LCALL   ?XSTACK_DISP0_8
        POP     A
        CFI CFA_SP SP+0
        LCALL   ?Subroutine4 & 0xFFFF
//  693   theMessageData[3] = sensorID;
??CrossCallReturnLabel_7:
        PUSH    A
        CFI CFA_SP SP+-1
        MOV     A,#0x3
        LCALL   ?XSTACK_DISP0_8
        POP     A
        CFI CFA_SP SP+0
        LCALL   ?Subroutine3 & 0xFFFF
//  694        
//  695   //HalUARTWrite(0, "GAN:", 4);           //输出提示信息
//  696   //HalUARTWrite(0, theMessageData, 2);
//  697   //HalUARTWrite(0, "\n",1);
//  698 
//  699   //osal_memcpy(strGan, "TEMP:", 5);
//  700   //osal_memcpy(&strGan[5], theMessageData, 3);
//  701   //HalLcdWriteString("123", HAL_LCD_LINE_3); //LCD显示
//  702    
//  703   AF_DataRequest( &GenericApp_DstAddr, &GenericApp_epDesc,
//  704                        GenericApp_GAN_CLUSTERID,
//  705                        4,
//  706                        theMessageData,
//  707                        &GenericApp_TransID,
//  708                        AF_DISCV_ROUTE,
//  709                        AF_DEFAULT_RADIUS );
??CrossCallReturnLabel_2:
        LCALL   ?PUSH_XSTACK_I_ONE
        CFI CFA_XSP16 add(XSP16, 15)
        MOV     ?V0 + 0,#GenericApp_TransID & 0xff
        MOV     ?V0 + 1,#(GenericApp_TransID >> 8) & 0xff
        MOV     R0,#?V0 + 0
        LCALL   ?PUSH_XSTACK_I_TWO
        CFI CFA_XSP16 add(XSP16, 17)
        MOV     A,#0x3
        LCALL   ?XSTACK_DISP0_8
        MOV     ?V0 + 0,DPL
        MOV     ?V0 + 1,DPH
        MOV     R0,#?V0 + 0
        LCALL   ?PUSH_XSTACK_I_TWO
        CFI CFA_XSP16 add(XSP16, 19)
        MOV     ?V0 + 0,#0x4
        MOV     ?V0 + 1,#0x0
        MOV     R0,#?V0 + 0
        LCALL   ?PUSH_XSTACK_I_TWO
        CFI CFA_XSP16 add(XSP16, 21)
        MOV     ?V0 + 0,#0x2
        MOV     R0,#?V0 + 0
        LCALL   ?PUSH_XSTACK_I_TWO
        CFI CFA_XSP16 add(XSP16, 23)
        LCALL   ?Subroutine8 & 0xFFFF
??CrossCallReturnLabel_19:
        LCALL   ?DEALLOC_XSTACK8
        CFI CFA_XSP16 add(XSP16, 14)
//  710 }
        MOV     A,#0x4
        LJMP    ??Subroutine11_0 & 0xFFFF
        CFI EndBlock cfiBlock22

        RSEG BANKED_CODE:CODE:NOROOT(0)
?Subroutine7:
        CFI Block cfiCond23 Using cfiCommon0
        CFI NoFunction
        CFI Conditional ??CrossCallReturnLabel_14
        CFI R6 load(1, XDATA, add(CFA_XSP16, literal(-10)))
        CFI VB load(1, XDATA, add(CFA_XSP16, literal(-9)))
        CFI V0 load(1, XDATA, add(CFA_XSP16, literal(-8)))
        CFI V1 load(1, XDATA, add(CFA_XSP16, literal(-7)))
        CFI R7 load(1, XDATA, add(CFA_XSP16, literal(-6)))
        CFI ?RET_LOW load(1, XDATA, add(CFA_XSP16, literal(-5)))
        CFI ?RET_HIGH load(1, XDATA, add(CFA_XSP16, literal(-4)))
        CFI ?BRET_EXT load(1, XDATA, add(CFA_XSP16, literal(-3)))
        CFI DPL0 load(1, XDATA, add(CFA_XSP16, literal(-2)))
        CFI DPH0 load(1, XDATA, add(CFA_XSP16, literal(-1)))
        CFI CFA_SP SP+0
        CFI CFA_XSP16 add(XSP16, 21)
        CFI Block cfiCond24 Using cfiCommon0
        CFI (cfiCond24) NoFunction
        CFI (cfiCond24) Conditional ??CrossCallReturnLabel_15
        CFI (cfiCond24) R6 load(1, XDATA, add(CFA_XSP16, literal(-10)))
        CFI (cfiCond24) VB load(1, XDATA, add(CFA_XSP16, literal(-9)))
        CFI (cfiCond24) V0 load(1, XDATA, add(CFA_XSP16, literal(-8)))
        CFI (cfiCond24) V1 load(1, XDATA, add(CFA_XSP16, literal(-7)))
        CFI (cfiCond24) R7 load(1, XDATA, add(CFA_XSP16, literal(-6)))
        CFI (cfiCond24) ?RET_LOW load(1, XDATA, add(CFA_XSP16, literal(-5)))
        CFI (cfiCond24) ?RET_HIGH load(1, XDATA, add(CFA_XSP16, literal(-4)))
        CFI (cfiCond24) ?BRET_EXT load(1, XDATA, add(CFA_XSP16, literal(-3)))
        CFI (cfiCond24) DPL0 load(1, XDATA, add(CFA_XSP16, literal(-2)))
        CFI (cfiCond24) DPH0 load(1, XDATA, add(CFA_XSP16, literal(-1)))
        CFI (cfiCond24) CFA_SP SP+0
        CFI (cfiCond24) CFA_XSP16 add(XSP16, 14)
        CFI Block cfiPicker25 Using cfiCommon1
        CFI (cfiPicker25) NoFunction
        CFI (cfiPicker25) Picker
        LCALL   ??myApp_ReadGasLevel?relay
        MOV     ?V0 + 0,R2
        MOV     ?V0 + 1,R3
        MOV     R4,?V0 + 0
        MOV     R5,?V0 + 1
        MOV     A,R4
        MOV     R0,A
        MOV     A,R5
        MOV     R1,A
        RET
        CFI EndBlock cfiCond23
        CFI EndBlock cfiCond24
        CFI EndBlock cfiPicker25

        RSEG BANKED_CODE:CODE:NOROOT(0)
?Subroutine4:
        CFI Block cfiCond26 Using cfiCommon0
        CFI NoFunction
        CFI Conditional ??CrossCallReturnLabel_5
        CFI R6 load(1, XDATA, add(CFA_XSP16, literal(-10)))
        CFI VB load(1, XDATA, add(CFA_XSP16, literal(-9)))
        CFI V0 load(1, XDATA, add(CFA_XSP16, literal(-8)))
        CFI V1 load(1, XDATA, add(CFA_XSP16, literal(-7)))
        CFI R7 load(1, XDATA, add(CFA_XSP16, literal(-6)))
        CFI ?RET_LOW load(1, XDATA, add(CFA_XSP16, literal(-5)))
        CFI ?RET_HIGH load(1, XDATA, add(CFA_XSP16, literal(-4)))
        CFI ?BRET_EXT load(1, XDATA, add(CFA_XSP16, literal(-3)))
        CFI DPL0 load(1, XDATA, add(CFA_XSP16, literal(-2)))
        CFI DPH0 load(1, XDATA, add(CFA_XSP16, literal(-1)))
        CFI CFA_SP SP+0
        CFI CFA_XSP16 add(XSP16, 21)
        CFI Block cfiCond27 Using cfiCommon0
        CFI (cfiCond27) NoFunction
        CFI (cfiCond27) Conditional ??CrossCallReturnLabel_6
        CFI (cfiCond27) R6 load(1, XDATA, add(CFA_XSP16, literal(-10)))
        CFI (cfiCond27) VB load(1, XDATA, add(CFA_XSP16, literal(-9)))
        CFI (cfiCond27) V0 load(1, XDATA, add(CFA_XSP16, literal(-8)))
        CFI (cfiCond27) V1 load(1, XDATA, add(CFA_XSP16, literal(-7)))
        CFI (cfiCond27) R7 load(1, XDATA, add(CFA_XSP16, literal(-6)))
        CFI (cfiCond27) ?RET_LOW load(1, XDATA, add(CFA_XSP16, literal(-5)))
        CFI (cfiCond27) ?RET_HIGH load(1, XDATA, add(CFA_XSP16, literal(-4)))
        CFI (cfiCond27) ?BRET_EXT load(1, XDATA, add(CFA_XSP16, literal(-3)))
        CFI (cfiCond27) DPL0 load(1, XDATA, add(CFA_XSP16, literal(-2)))
        CFI (cfiCond27) DPH0 load(1, XDATA, add(CFA_XSP16, literal(-1)))
        CFI (cfiCond27) CFA_SP SP+0
        CFI (cfiCond27) CFA_XSP16 add(XSP16, 13)
        CFI Block cfiCond28 Using cfiCommon0
        CFI (cfiCond28) NoFunction
        CFI (cfiCond28) Conditional ??CrossCallReturnLabel_7
        CFI (cfiCond28) R6 load(1, XDATA, add(CFA_XSP16, literal(-10)))
        CFI (cfiCond28) VB load(1, XDATA, add(CFA_XSP16, literal(-9)))
        CFI (cfiCond28) V0 load(1, XDATA, add(CFA_XSP16, literal(-8)))
        CFI (cfiCond28) V1 load(1, XDATA, add(CFA_XSP16, literal(-7)))
        CFI (cfiCond28) R7 load(1, XDATA, add(CFA_XSP16, literal(-6)))
        CFI (cfiCond28) ?RET_LOW load(1, XDATA, add(CFA_XSP16, literal(-5)))
        CFI (cfiCond28) ?RET_HIGH load(1, XDATA, add(CFA_XSP16, literal(-4)))
        CFI (cfiCond28) ?BRET_EXT load(1, XDATA, add(CFA_XSP16, literal(-3)))
        CFI (cfiCond28) DPL0 load(1, XDATA, add(CFA_XSP16, literal(-2)))
        CFI (cfiCond28) DPH0 load(1, XDATA, add(CFA_XSP16, literal(-1)))
        CFI (cfiCond28) CFA_SP SP+0
        CFI (cfiCond28) CFA_XSP16 add(XSP16, 14)
        CFI Block cfiCond29 Using cfiCommon0
        CFI (cfiCond29) NoFunction
        CFI (cfiCond29) Conditional ??CrossCallReturnLabel_8
        CFI (cfiCond29) R6 load(1, XDATA, add(CFA_XSP16, literal(-10)))
        CFI (cfiCond29) VB load(1, XDATA, add(CFA_XSP16, literal(-9)))
        CFI (cfiCond29) V0 load(1, XDATA, add(CFA_XSP16, literal(-8)))
        CFI (cfiCond29) V1 load(1, XDATA, add(CFA_XSP16, literal(-7)))
        CFI (cfiCond29) R7 load(1, XDATA, add(CFA_XSP16, literal(-6)))
        CFI (cfiCond29) ?RET_LOW load(1, XDATA, add(CFA_XSP16, literal(-5)))
        CFI (cfiCond29) ?RET_HIGH load(1, XDATA, add(CFA_XSP16, literal(-4)))
        CFI (cfiCond29) ?BRET_EXT load(1, XDATA, add(CFA_XSP16, literal(-3)))
        CFI (cfiCond29) DPL0 load(1, XDATA, add(CFA_XSP16, literal(-2)))
        CFI (cfiCond29) DPH0 load(1, XDATA, add(CFA_XSP16, literal(-1)))
        CFI (cfiCond29) CFA_SP SP+0
        CFI (cfiCond29) CFA_XSP16 add(XSP16, 13)
        CFI Block cfiCond30 Using cfiCommon0
        CFI (cfiCond30) NoFunction
        CFI (cfiCond30) Conditional ??CrossCallReturnLabel_9
        CFI (cfiCond30) R6 load(1, XDATA, add(CFA_XSP16, literal(-10)))
        CFI (cfiCond30) VB load(1, XDATA, add(CFA_XSP16, literal(-9)))
        CFI (cfiCond30) V0 load(1, XDATA, add(CFA_XSP16, literal(-8)))
        CFI (cfiCond30) V1 load(1, XDATA, add(CFA_XSP16, literal(-7)))
        CFI (cfiCond30) R7 load(1, XDATA, add(CFA_XSP16, literal(-6)))
        CFI (cfiCond30) ?RET_LOW load(1, XDATA, add(CFA_XSP16, literal(-5)))
        CFI (cfiCond30) ?RET_HIGH load(1, XDATA, add(CFA_XSP16, literal(-4)))
        CFI (cfiCond30) ?BRET_EXT load(1, XDATA, add(CFA_XSP16, literal(-3)))
        CFI (cfiCond30) DPL0 load(1, XDATA, add(CFA_XSP16, literal(-2)))
        CFI (cfiCond30) DPH0 load(1, XDATA, add(CFA_XSP16, literal(-1)))
        CFI (cfiCond30) CFA_SP SP+0
        CFI (cfiCond30) CFA_XSP16 add(XSP16, 12)
        CFI Block cfiPicker31 Using cfiCommon1
        CFI (cfiPicker31) NoFunction
        CFI (cfiPicker31) Picker
        MOVX    @DPTR,A
        MOV     DPTR,#sensorID
        MOVX    A,@DPTR
        RET
        CFI EndBlock cfiCond26
        CFI EndBlock cfiCond27
        CFI EndBlock cfiCond28
        CFI EndBlock cfiCond29
        CFI EndBlock cfiCond30
        CFI EndBlock cfiPicker31

        RSEG BANKED_CODE:CODE:NOROOT(0)
?Subroutine3:
        CFI Block cfiCond32 Using cfiCommon0
        CFI NoFunction
        CFI Conditional ??CrossCallReturnLabel_0
        CFI R6 load(1, XDATA, add(CFA_XSP16, literal(-10)))
        CFI VB load(1, XDATA, add(CFA_XSP16, literal(-9)))
        CFI V0 load(1, XDATA, add(CFA_XSP16, literal(-8)))
        CFI V1 load(1, XDATA, add(CFA_XSP16, literal(-7)))
        CFI R7 load(1, XDATA, add(CFA_XSP16, literal(-6)))
        CFI ?RET_LOW load(1, XDATA, add(CFA_XSP16, literal(-5)))
        CFI ?RET_HIGH load(1, XDATA, add(CFA_XSP16, literal(-4)))
        CFI ?BRET_EXT load(1, XDATA, add(CFA_XSP16, literal(-3)))
        CFI DPL0 load(1, XDATA, add(CFA_XSP16, literal(-2)))
        CFI DPH0 load(1, XDATA, add(CFA_XSP16, literal(-1)))
        CFI CFA_SP SP+0
        CFI CFA_XSP16 add(XSP16, 21)
        CFI Block cfiCond33 Using cfiCommon0
        CFI (cfiCond33) NoFunction
        CFI (cfiCond33) Conditional ??CrossCallReturnLabel_1
        CFI (cfiCond33) R6 load(1, XDATA, add(CFA_XSP16, literal(-10)))
        CFI (cfiCond33) VB load(1, XDATA, add(CFA_XSP16, literal(-9)))
        CFI (cfiCond33) V0 load(1, XDATA, add(CFA_XSP16, literal(-8)))
        CFI (cfiCond33) V1 load(1, XDATA, add(CFA_XSP16, literal(-7)))
        CFI (cfiCond33) R7 load(1, XDATA, add(CFA_XSP16, literal(-6)))
        CFI (cfiCond33) ?RET_LOW load(1, XDATA, add(CFA_XSP16, literal(-5)))
        CFI (cfiCond33) ?RET_HIGH load(1, XDATA, add(CFA_XSP16, literal(-4)))
        CFI (cfiCond33) ?BRET_EXT load(1, XDATA, add(CFA_XSP16, literal(-3)))
        CFI (cfiCond33) DPL0 load(1, XDATA, add(CFA_XSP16, literal(-2)))
        CFI (cfiCond33) DPH0 load(1, XDATA, add(CFA_XSP16, literal(-1)))
        CFI (cfiCond33) CFA_SP SP+0
        CFI (cfiCond33) CFA_XSP16 add(XSP16, 13)
        CFI Block cfiCond34 Using cfiCommon0
        CFI (cfiCond34) NoFunction
        CFI (cfiCond34) Conditional ??CrossCallReturnLabel_2
        CFI (cfiCond34) R6 load(1, XDATA, add(CFA_XSP16, literal(-10)))
        CFI (cfiCond34) VB load(1, XDATA, add(CFA_XSP16, literal(-9)))
        CFI (cfiCond34) V0 load(1, XDATA, add(CFA_XSP16, literal(-8)))
        CFI (cfiCond34) V1 load(1, XDATA, add(CFA_XSP16, literal(-7)))
        CFI (cfiCond34) R7 load(1, XDATA, add(CFA_XSP16, literal(-6)))
        CFI (cfiCond34) ?RET_LOW load(1, XDATA, add(CFA_XSP16, literal(-5)))
        CFI (cfiCond34) ?RET_HIGH load(1, XDATA, add(CFA_XSP16, literal(-4)))
        CFI (cfiCond34) ?BRET_EXT load(1, XDATA, add(CFA_XSP16, literal(-3)))
        CFI (cfiCond34) DPL0 load(1, XDATA, add(CFA_XSP16, literal(-2)))
        CFI (cfiCond34) DPH0 load(1, XDATA, add(CFA_XSP16, literal(-1)))
        CFI (cfiCond34) CFA_SP SP+0
        CFI (cfiCond34) CFA_XSP16 add(XSP16, 14)
        CFI Block cfiCond35 Using cfiCommon0
        CFI (cfiCond35) NoFunction
        CFI (cfiCond35) Conditional ??CrossCallReturnLabel_3
        CFI (cfiCond35) R6 load(1, XDATA, add(CFA_XSP16, literal(-10)))
        CFI (cfiCond35) VB load(1, XDATA, add(CFA_XSP16, literal(-9)))
        CFI (cfiCond35) V0 load(1, XDATA, add(CFA_XSP16, literal(-8)))
        CFI (cfiCond35) V1 load(1, XDATA, add(CFA_XSP16, literal(-7)))
        CFI (cfiCond35) R7 load(1, XDATA, add(CFA_XSP16, literal(-6)))
        CFI (cfiCond35) ?RET_LOW load(1, XDATA, add(CFA_XSP16, literal(-5)))
        CFI (cfiCond35) ?RET_HIGH load(1, XDATA, add(CFA_XSP16, literal(-4)))
        CFI (cfiCond35) ?BRET_EXT load(1, XDATA, add(CFA_XSP16, literal(-3)))
        CFI (cfiCond35) DPL0 load(1, XDATA, add(CFA_XSP16, literal(-2)))
        CFI (cfiCond35) DPH0 load(1, XDATA, add(CFA_XSP16, literal(-1)))
        CFI (cfiCond35) CFA_SP SP+0
        CFI (cfiCond35) CFA_XSP16 add(XSP16, 13)
        CFI Block cfiCond36 Using cfiCommon0
        CFI (cfiCond36) NoFunction
        CFI (cfiCond36) Conditional ??CrossCallReturnLabel_4
        CFI (cfiCond36) R6 load(1, XDATA, add(CFA_XSP16, literal(-10)))
        CFI (cfiCond36) VB load(1, XDATA, add(CFA_XSP16, literal(-9)))
        CFI (cfiCond36) V0 load(1, XDATA, add(CFA_XSP16, literal(-8)))
        CFI (cfiCond36) V1 load(1, XDATA, add(CFA_XSP16, literal(-7)))
        CFI (cfiCond36) R7 load(1, XDATA, add(CFA_XSP16, literal(-6)))
        CFI (cfiCond36) ?RET_LOW load(1, XDATA, add(CFA_XSP16, literal(-5)))
        CFI (cfiCond36) ?RET_HIGH load(1, XDATA, add(CFA_XSP16, literal(-4)))
        CFI (cfiCond36) ?BRET_EXT load(1, XDATA, add(CFA_XSP16, literal(-3)))
        CFI (cfiCond36) DPL0 load(1, XDATA, add(CFA_XSP16, literal(-2)))
        CFI (cfiCond36) DPH0 load(1, XDATA, add(CFA_XSP16, literal(-1)))
        CFI (cfiCond36) CFA_SP SP+0
        CFI (cfiCond36) CFA_XSP16 add(XSP16, 12)
        CFI Block cfiPicker37 Using cfiCommon1
        CFI (cfiPicker37) NoFunction
        CFI (cfiPicker37) Picker
        MOVX    @DPTR,A
        ; Setup parameters for call to function AF_DataRequest
        ; Setup parameters for call to function AF_DataRequest
        ; Setup parameters for call to function AF_DataRequest
        ; Setup parameters for call to function AF_DataRequest
        ; Setup parameters for call to function AF_DataRequest
        MOV     ?V0 + 0,#0x1e
        MOV     R0,#?V0 + 0
        RET
        CFI EndBlock cfiCond32
        CFI EndBlock cfiCond33
        CFI EndBlock cfiCond34
        CFI EndBlock cfiCond35
        CFI EndBlock cfiCond36
        CFI EndBlock cfiPicker37

        RSEG BANKED_CODE:CODE:NOROOT(0)
?Subroutine2:
        CFI Block cfiCond38 Using cfiCommon0
        CFI NoFunction
        CFI Conditional ??CrossCallReturnLabel_25
        CFI R6 load(1, XDATA, add(CFA_XSP16, literal(-10)))
        CFI VB load(1, XDATA, add(CFA_XSP16, literal(-9)))
        CFI V0 load(1, XDATA, add(CFA_XSP16, literal(-8)))
        CFI V1 load(1, XDATA, add(CFA_XSP16, literal(-7)))
        CFI R7 load(1, XDATA, add(CFA_XSP16, literal(-6)))
        CFI ?RET_LOW load(1, XDATA, add(CFA_XSP16, literal(-5)))
        CFI ?RET_HIGH load(1, XDATA, add(CFA_XSP16, literal(-4)))
        CFI ?BRET_EXT load(1, XDATA, add(CFA_XSP16, literal(-3)))
        CFI DPL0 load(1, XDATA, add(CFA_XSP16, literal(-2)))
        CFI DPH0 load(1, XDATA, add(CFA_XSP16, literal(-1)))
        CFI CFA_SP SP+0
        CFI CFA_XSP16 add(XSP16, 13)
        CFI Block cfiCond39 Using cfiCommon0
        CFI (cfiCond39) NoFunction
        CFI (cfiCond39) Conditional ??CrossCallReturnLabel_26
        CFI (cfiCond39) R6 load(1, XDATA, add(CFA_XSP16, literal(-10)))
        CFI (cfiCond39) VB load(1, XDATA, add(CFA_XSP16, literal(-9)))
        CFI (cfiCond39) V0 load(1, XDATA, add(CFA_XSP16, literal(-8)))
        CFI (cfiCond39) V1 load(1, XDATA, add(CFA_XSP16, literal(-7)))
        CFI (cfiCond39) R7 load(1, XDATA, add(CFA_XSP16, literal(-6)))
        CFI (cfiCond39) ?RET_LOW load(1, XDATA, add(CFA_XSP16, literal(-5)))
        CFI (cfiCond39) ?RET_HIGH load(1, XDATA, add(CFA_XSP16, literal(-4)))
        CFI (cfiCond39) ?BRET_EXT load(1, XDATA, add(CFA_XSP16, literal(-3)))
        CFI (cfiCond39) DPL0 load(1, XDATA, add(CFA_XSP16, literal(-2)))
        CFI (cfiCond39) DPH0 load(1, XDATA, add(CFA_XSP16, literal(-1)))
        CFI (cfiCond39) CFA_SP SP+0
        CFI (cfiCond39) CFA_XSP16 add(XSP16, 14)
        CFI Block cfiPicker40 Using cfiCommon1
        CFI (cfiPicker40) NoFunction
        CFI (cfiPicker40) Picker
        MOV     A,R0
        LCALL   ?Subroutine10 & 0xFFFF
        CFI EndBlock cfiCond38
        CFI EndBlock cfiCond39
        CFI EndBlock cfiPicker40
??CrossCallReturnLabel_23:
        REQUIRE ??Subroutine12_0
        ; // Fall through to label ??Subroutine12_0

        RSEG BANKED_CODE:CODE:NOROOT(0)
??Subroutine12_0:
        CFI Block cfiCond41 Using cfiCommon0
        CFI NoFunction
        CFI Conditional ??CrossCallReturnLabel_27
        CFI R6 load(1, XDATA, add(CFA_XSP16, literal(-10)))
        CFI VB load(1, XDATA, add(CFA_XSP16, literal(-9)))
        CFI V0 load(1, XDATA, add(CFA_XSP16, literal(-8)))
        CFI V1 load(1, XDATA, add(CFA_XSP16, literal(-7)))
        CFI R7 load(1, XDATA, add(CFA_XSP16, literal(-6)))
        CFI ?RET_LOW load(1, XDATA, add(CFA_XSP16, literal(-5)))
        CFI ?RET_HIGH load(1, XDATA, add(CFA_XSP16, literal(-4)))
        CFI ?BRET_EXT load(1, XDATA, add(CFA_XSP16, literal(-3)))
        CFI DPL0 load(1, XDATA, add(CFA_XSP16, literal(-2)))
        CFI DPH0 load(1, XDATA, add(CFA_XSP16, literal(-1)))
        CFI CFA_SP SP+0
        CFI CFA_XSP16 add(XSP16, 21)
        CFI Block cfiCond42 Using cfiCommon0
        CFI (cfiCond42) NoFunction
        CFI (cfiCond42) Conditional ??CrossCallReturnLabel_28
        CFI (cfiCond42) R6 load(1, XDATA, add(CFA_XSP16, literal(-10)))
        CFI (cfiCond42) VB load(1, XDATA, add(CFA_XSP16, literal(-9)))
        CFI (cfiCond42) V0 load(1, XDATA, add(CFA_XSP16, literal(-8)))
        CFI (cfiCond42) V1 load(1, XDATA, add(CFA_XSP16, literal(-7)))
        CFI (cfiCond42) R7 load(1, XDATA, add(CFA_XSP16, literal(-6)))
        CFI (cfiCond42) ?RET_LOW load(1, XDATA, add(CFA_XSP16, literal(-5)))
        CFI (cfiCond42) ?RET_HIGH load(1, XDATA, add(CFA_XSP16, literal(-4)))
        CFI (cfiCond42) ?BRET_EXT load(1, XDATA, add(CFA_XSP16, literal(-3)))
        CFI (cfiCond42) DPL0 load(1, XDATA, add(CFA_XSP16, literal(-2)))
        CFI (cfiCond42) DPH0 load(1, XDATA, add(CFA_XSP16, literal(-1)))
        CFI (cfiCond42) CFA_SP SP+0
        CFI (cfiCond42) CFA_XSP16 add(XSP16, 14)
        CFI Block cfiCond43 Using cfiCommon0
        CFI (cfiCond43) NoFunction
        CFI (cfiCond43) Conditional ??CrossCallReturnLabel_25
        CFI (cfiCond43) R6 load(1, XDATA, add(CFA_XSP16, literal(-10)))
        CFI (cfiCond43) VB load(1, XDATA, add(CFA_XSP16, literal(-9)))
        CFI (cfiCond43) V0 load(1, XDATA, add(CFA_XSP16, literal(-8)))
        CFI (cfiCond43) V1 load(1, XDATA, add(CFA_XSP16, literal(-7)))
        CFI (cfiCond43) R7 load(1, XDATA, add(CFA_XSP16, literal(-6)))
        CFI (cfiCond43) ?RET_LOW load(1, XDATA, add(CFA_XSP16, literal(-5)))
        CFI (cfiCond43) ?RET_HIGH load(1, XDATA, add(CFA_XSP16, literal(-4)))
        CFI (cfiCond43) ?BRET_EXT load(1, XDATA, add(CFA_XSP16, literal(-3)))
        CFI (cfiCond43) DPL0 load(1, XDATA, add(CFA_XSP16, literal(-2)))
        CFI (cfiCond43) DPH0 load(1, XDATA, add(CFA_XSP16, literal(-1)))
        CFI (cfiCond43) CFA_SP SP+0
        CFI (cfiCond43) CFA_XSP16 add(XSP16, 13)
        CFI Block cfiCond44 Using cfiCommon0
        CFI (cfiCond44) NoFunction
        CFI (cfiCond44) Conditional ??CrossCallReturnLabel_26
        CFI (cfiCond44) R6 load(1, XDATA, add(CFA_XSP16, literal(-10)))
        CFI (cfiCond44) VB load(1, XDATA, add(CFA_XSP16, literal(-9)))
        CFI (cfiCond44) V0 load(1, XDATA, add(CFA_XSP16, literal(-8)))
        CFI (cfiCond44) V1 load(1, XDATA, add(CFA_XSP16, literal(-7)))
        CFI (cfiCond44) R7 load(1, XDATA, add(CFA_XSP16, literal(-6)))
        CFI (cfiCond44) ?RET_LOW load(1, XDATA, add(CFA_XSP16, literal(-5)))
        CFI (cfiCond44) ?RET_HIGH load(1, XDATA, add(CFA_XSP16, literal(-4)))
        CFI (cfiCond44) ?BRET_EXT load(1, XDATA, add(CFA_XSP16, literal(-3)))
        CFI (cfiCond44) DPL0 load(1, XDATA, add(CFA_XSP16, literal(-2)))
        CFI (cfiCond44) DPH0 load(1, XDATA, add(CFA_XSP16, literal(-1)))
        CFI (cfiCond44) CFA_SP SP+0
        CFI (cfiCond44) CFA_XSP16 add(XSP16, 14)
        CFI Block cfiPicker45 Using cfiCommon1
        CFI (cfiPicker45) NoFunction
        CFI (cfiPicker45) Picker
        MOVX    @DPTR,A
        MOV     A,R4
        MOV     R0,A
        MOV     A,R5
        MOV     R1,A
        MOV     R2,#0xa
        MOV     R3,#0x0
        RET
        CFI EndBlock cfiCond41
        CFI EndBlock cfiCond42
        CFI EndBlock cfiCond43
        CFI EndBlock cfiCond44
        CFI EndBlock cfiPicker45
//  711 
//  712 /*********************************************************************
//  713 读烟雾浓度函数
//  714 */

        RSEG BANKED_CODE:CODE:NOROOT(0)
//  715 uint16 myApp_ReadGasLevel( void )
myApp_ReadGasLevel:
        CFI Block cfiBlock46 Using cfiCommon0
        CFI Function myApp_ReadGasLevel
        CODE
//  716 {
        ; Saved register size: 0
        ; Auto size: 0
//  717   uint16 reading = 0;
//  718   
//  719   /* Enable channel */
//  720   ADCCFG |= 0x80;
        ORL     0xf2,#0x80
//  721   
//  722   /* writing to this register starts the extra conversion */
//  723   ADCCON3 = 0x87;
        MOV     0xb6,#-0x79
//  724   
//  725   /* Wait for the conversion to be done */
//  726   while (!(ADCCON1 & 0x80));
??myApp_ReadGasLevel_0:
        MOV     A,0xb4
        MOV     C,0xE0 /* A   */.7
        JNC     ??myApp_ReadGasLevel_0
//  727   
//  728   /* Disable channel after done conversion */
//  729   ADCCFG &= (0x80 ^ 0xFF);
        ANL     0xf2,#0x7f
//  730   
//  731   /* Read the result */
//  732   reading = ADCH;
        LJMP    ?Subroutine1 & 0xFFFF
        CFI EndBlock cfiBlock46
        REQUIRE ADCCFG
        REQUIRE ADCCON3
        REQUIRE ADCCON1
        REQUIRE ADCH
//  733   reading |= (int16) (ADCH << 8); 
//  734   
//  735   reading >>= 8;
//  736   
//  737   return (reading);
//  738 }
//  739 

        RSEG BANKED_CODE:CODE:NOROOT(0)
//  740 void GenericApp_Send_wedu_Message( void )//我加的，温度无线发送函数
GenericApp_Send_wedu_Message:
        CFI Block cfiBlock47 Using cfiCommon0
        CFI Function GenericApp_Send_wedu_Message
        CODE
//  741 {
        FUNCALL GenericApp_Send_wedu_Message, ReadDs18B20
        LOCFRAME ISTACK, 0, STACK
        LOCFRAME PSTACK, 0, STACK
        LOCFRAME XSTACK, 13, STACK
        LOCFRAME IOVERLAY, 0, STATIC
        LOCFRAME DOVERLAY, 0, STATIC
        ARGFRAME ISTACK, 0, STACK
        ARGFRAME PSTACK, 0, STACK
        ARGFRAME XSTACK, 13, STACK
        ARGFRAME IOVERLAY, 0, STATIC
        ARGFRAME DOVERLAY, 0, STATIC
        FUNCALL GenericApp_Send_wedu_Message, AF_DataRequest
        LOCFRAME ISTACK, 0, STACK
        LOCFRAME PSTACK, 0, STACK
        LOCFRAME XSTACK, 22, STACK
        LOCFRAME IOVERLAY, 0, STATIC
        LOCFRAME DOVERLAY, 0, STATIC
        ARGFRAME ISTACK, 0, STACK
        ARGFRAME PSTACK, 0, STACK
        ARGFRAME XSTACK, 22, STACK
        ARGFRAME IOVERLAY, 0, STATIC
        ARGFRAME DOVERLAY, 0, STATIC
        MOV     A,#-0xa
        LCALL   ?BANKED_ENTER_XDATA
        CFI DPH0 load(1, XDATA, add(CFA_XSP16, literal(-1)))
        CFI DPL0 load(1, XDATA, add(CFA_XSP16, literal(-2)))
        CFI ?BRET_EXT load(1, XDATA, add(CFA_XSP16, literal(-3)))
        CFI ?RET_HIGH load(1, XDATA, add(CFA_XSP16, literal(-4)))
        CFI ?RET_LOW load(1, XDATA, add(CFA_XSP16, literal(-5)))
        CFI R7 load(1, XDATA, add(CFA_XSP16, literal(-6)))
        CFI V1 load(1, XDATA, add(CFA_XSP16, literal(-7)))
        CFI V0 load(1, XDATA, add(CFA_XSP16, literal(-8)))
        CFI VB load(1, XDATA, add(CFA_XSP16, literal(-9)))
        CFI R6 load(1, XDATA, add(CFA_XSP16, literal(-10)))
        CFI CFA_SP SP+0
        CFI CFA_XSP16 add(XSP16, 10)
        ; Saved register size: 10
        ; Auto size: 3
        MOV     A,#-0x3
        LCALL   ?ALLOC_XSTACK8
        CFI CFA_XSP16 add(XSP16, 13)
//  742   byte str[3];
//  743   //char strTemp[10];
//  744   byte temp;
//  745 
//  746   temp = ReadDs18B20();                //读取温度数据
        ; Setup parameters for call to function ReadDs18B20
        LCALL   ??ReadDs18B20?relay
        MOV     A,R1
        MOV     R0,A
//  747 
//  748   str[0] = temp/10+48;
        MOV     B,#0xa
        DIV     AB
        LCALL   ?Subroutine9 & 0xFFFF
//  749   str[1] = temp%10+48;
??CrossCallReturnLabel_22:
        MOV     A,R0
        MOV     B,#0xa
        DIV     AB
        MOV     A,B
        ADD     A,#0x30
        PUSH    A
        CFI CFA_SP SP+-1
        MOV     A,#0x1
        LCALL   ?XSTACK_DISP0_8
        POP     A
        CFI CFA_SP SP+0
        LCALL   ?Subroutine4 & 0xFFFF
//  750   str[2] = sensorID;
??CrossCallReturnLabel_8:
        PUSH    A
        CFI CFA_SP SP+-1
        MOV     A,#0x2
        LCALL   ?XSTACK_DISP0_8
        POP     A
        CFI CFA_SP SP+0
        LCALL   ?Subroutine3 & 0xFFFF
//  751   //str[2] = ' ';
//  752   //str[3] = 'C';
//  753   //str[4] = '\0';    
//  754 
//  755   //osal_memcpy(strTemp, "TEMP:", 5);
//  756   //osal_memcpy(&strTemp[5], str, 5);
//  757   //HalLcdWriteString(strTemp, HAL_LCD_LINE_3); //LCD显示
//  758   
//  759   AF_DataRequest( &GenericApp_DstAddr, &GenericApp_epDesc,
//  760                        GenericApp_wendu_CLUSTERID,
//  761                        3,
//  762                        str,
//  763                        &GenericApp_TransID,
//  764                        AF_DISCV_ROUTE,
//  765                        AF_DEFAULT_RADIUS ) ;
??CrossCallReturnLabel_3:
        LCALL   ?PUSH_XSTACK_I_ONE
        CFI CFA_XSP16 add(XSP16, 14)
        MOV     ?V0 + 0,#GenericApp_TransID & 0xff
        MOV     ?V0 + 1,#(GenericApp_TransID >> 8) & 0xff
        MOV     R0,#?V0 + 0
        LCALL   ?PUSH_XSTACK_I_TWO
        CFI CFA_XSP16 add(XSP16, 16)
        MOV     A,#0x3
        LCALL   ?XSTACK_DISP0_8
        MOV     ?V0 + 0,DPL
        MOV     ?V0 + 1,DPH
        MOV     R0,#?V0 + 0
        LCALL   ?PUSH_XSTACK_I_TWO
        CFI CFA_XSP16 add(XSP16, 18)
        MOV     ?V0 + 0,#0x3
        MOV     ?V0 + 1,#0x0
        MOV     R0,#?V0 + 0
        LCALL   ?PUSH_XSTACK_I_TWO
        CFI CFA_XSP16 add(XSP16, 20)
        MOV     ?V0 + 0,#0x5
        LJMP    ?Subroutine0 & 0xFFFF
        CFI EndBlock cfiBlock47
//  766 }

        RSEG BANKED_CODE:CODE:NOROOT(0)
?Subroutine9:
        CFI Block cfiCond48 Using cfiCommon0
        CFI NoFunction
        CFI Conditional ??CrossCallReturnLabel_21
        CFI R6 load(1, XDATA, add(CFA_XSP16, literal(-11)))
        CFI VB load(1, XDATA, add(CFA_XSP16, literal(-10)))
        CFI V0 load(1, XDATA, add(CFA_XSP16, literal(-9)))
        CFI V1 load(1, XDATA, add(CFA_XSP16, literal(-8)))
        CFI V2 load(1, XDATA, add(CFA_XSP16, literal(-7)))
        CFI R7 load(1, XDATA, add(CFA_XSP16, literal(-6)))
        CFI ?RET_LOW load(1, XDATA, add(CFA_XSP16, literal(-5)))
        CFI ?RET_HIGH load(1, XDATA, add(CFA_XSP16, literal(-4)))
        CFI ?BRET_EXT load(1, XDATA, add(CFA_XSP16, literal(-3)))
        CFI DPL0 load(1, XDATA, add(CFA_XSP16, literal(-2)))
        CFI DPH0 load(1, XDATA, add(CFA_XSP16, literal(-1)))
        CFI CFA_SP SP+0
        CFI CFA_XSP16 add(XSP16, 20)
        CFI Block cfiCond49 Using cfiCommon0
        CFI (cfiCond49) NoFunction
        CFI (cfiCond49) Conditional ??CrossCallReturnLabel_22
        CFI (cfiCond49) R6 load(1, XDATA, add(CFA_XSP16, literal(-10)))
        CFI (cfiCond49) VB load(1, XDATA, add(CFA_XSP16, literal(-9)))
        CFI (cfiCond49) V0 load(1, XDATA, add(CFA_XSP16, literal(-8)))
        CFI (cfiCond49) V1 load(1, XDATA, add(CFA_XSP16, literal(-7)))
        CFI (cfiCond49) R7 load(1, XDATA, add(CFA_XSP16, literal(-6)))
        CFI (cfiCond49) ?RET_LOW load(1, XDATA, add(CFA_XSP16, literal(-5)))
        CFI (cfiCond49) ?RET_HIGH load(1, XDATA, add(CFA_XSP16, literal(-4)))
        CFI (cfiCond49) ?BRET_EXT load(1, XDATA, add(CFA_XSP16, literal(-3)))
        CFI (cfiCond49) DPL0 load(1, XDATA, add(CFA_XSP16, literal(-2)))
        CFI (cfiCond49) DPH0 load(1, XDATA, add(CFA_XSP16, literal(-1)))
        CFI (cfiCond49) CFA_SP SP+0
        CFI (cfiCond49) CFA_XSP16 add(XSP16, 13)
        CFI Block cfiPicker50 Using cfiCommon1
        CFI (cfiPicker50) NoFunction
        CFI (cfiPicker50) Picker
        LCALL   ?Subroutine10 & 0xFFFF
??CrossCallReturnLabel_24:
        MOVX    @DPTR,A
        RET
        CFI EndBlock cfiCond48
        CFI EndBlock cfiCond49
        CFI EndBlock cfiPicker50

        RSEG BANKED_CODE:CODE:NOROOT(0)
?Subroutine10:
        CFI Block cfiCond51 Using cfiCommon0
        CFI NoFunction
        CFI Conditional ??CrossCallReturnLabel_23, ??CrossCallReturnLabel_25
        CFI R6 load(1, XDATA, add(CFA_XSP16, literal(-10)))
        CFI VB load(1, XDATA, add(CFA_XSP16, literal(-9)))
        CFI V0 load(1, XDATA, add(CFA_XSP16, literal(-8)))
        CFI V1 load(1, XDATA, add(CFA_XSP16, literal(-7)))
        CFI R7 load(1, XDATA, add(CFA_XSP16, literal(-6)))
        CFI ?RET_LOW load(1, XDATA, add(CFA_XSP16, literal(-5)))
        CFI ?RET_HIGH load(1, XDATA, add(CFA_XSP16, literal(-4)))
        CFI ?BRET_EXT load(1, XDATA, add(CFA_XSP16, literal(-3)))
        CFI DPL0 load(1, XDATA, add(CFA_XSP16, literal(-2)))
        CFI DPH0 load(1, XDATA, add(CFA_XSP16, literal(-1)))
        CFI CFA_SP SP+0
        CFI CFA_XSP16 add(XSP16, 13)
        CFI Block cfiCond52 Using cfiCommon0
        CFI (cfiCond52) NoFunction
        CFI (cfiCond52) Conditional ??CrossCallReturnLabel_23, ??CrossCallReturnLabel_26
        CFI (cfiCond52) R6 load(1, XDATA, add(CFA_XSP16, literal(-10)))
        CFI (cfiCond52) VB load(1, XDATA, add(CFA_XSP16, literal(-9)))
        CFI (cfiCond52) V0 load(1, XDATA, add(CFA_XSP16, literal(-8)))
        CFI (cfiCond52) V1 load(1, XDATA, add(CFA_XSP16, literal(-7)))
        CFI (cfiCond52) R7 load(1, XDATA, add(CFA_XSP16, literal(-6)))
        CFI (cfiCond52) ?RET_LOW load(1, XDATA, add(CFA_XSP16, literal(-5)))
        CFI (cfiCond52) ?RET_HIGH load(1, XDATA, add(CFA_XSP16, literal(-4)))
        CFI (cfiCond52) ?BRET_EXT load(1, XDATA, add(CFA_XSP16, literal(-3)))
        CFI (cfiCond52) DPL0 load(1, XDATA, add(CFA_XSP16, literal(-2)))
        CFI (cfiCond52) DPH0 load(1, XDATA, add(CFA_XSP16, literal(-1)))
        CFI (cfiCond52) CFA_SP SP+0
        CFI (cfiCond52) CFA_XSP16 add(XSP16, 14)
        CFI Block cfiCond53 Using cfiCommon0
        CFI (cfiCond53) NoFunction
        CFI (cfiCond53) Conditional ??CrossCallReturnLabel_24, ??CrossCallReturnLabel_21
        CFI (cfiCond53) R6 load(1, XDATA, add(CFA_XSP16, literal(-11)))
        CFI (cfiCond53) VB load(1, XDATA, add(CFA_XSP16, literal(-10)))
        CFI (cfiCond53) V0 load(1, XDATA, add(CFA_XSP16, literal(-9)))
        CFI (cfiCond53) V1 load(1, XDATA, add(CFA_XSP16, literal(-8)))
        CFI (cfiCond53) V2 load(1, XDATA, add(CFA_XSP16, literal(-7)))
        CFI (cfiCond53) R7 load(1, XDATA, add(CFA_XSP16, literal(-6)))
        CFI (cfiCond53) ?RET_LOW load(1, XDATA, add(CFA_XSP16, literal(-5)))
        CFI (cfiCond53) ?RET_HIGH load(1, XDATA, add(CFA_XSP16, literal(-4)))
        CFI (cfiCond53) ?BRET_EXT load(1, XDATA, add(CFA_XSP16, literal(-3)))
        CFI (cfiCond53) DPL0 load(1, XDATA, add(CFA_XSP16, literal(-2)))
        CFI (cfiCond53) DPH0 load(1, XDATA, add(CFA_XSP16, literal(-1)))
        CFI (cfiCond53) CFA_SP SP+0
        CFI (cfiCond53) CFA_XSP16 add(XSP16, 20)
        CFI Block cfiCond54 Using cfiCommon0
        CFI (cfiCond54) NoFunction
        CFI (cfiCond54) Conditional ??CrossCallReturnLabel_24, ??CrossCallReturnLabel_22
        CFI (cfiCond54) R6 load(1, XDATA, add(CFA_XSP16, literal(-10)))
        CFI (cfiCond54) VB load(1, XDATA, add(CFA_XSP16, literal(-9)))
        CFI (cfiCond54) V0 load(1, XDATA, add(CFA_XSP16, literal(-8)))
        CFI (cfiCond54) V1 load(1, XDATA, add(CFA_XSP16, literal(-7)))
        CFI (cfiCond54) R7 load(1, XDATA, add(CFA_XSP16, literal(-6)))
        CFI (cfiCond54) ?RET_LOW load(1, XDATA, add(CFA_XSP16, literal(-5)))
        CFI (cfiCond54) ?RET_HIGH load(1, XDATA, add(CFA_XSP16, literal(-4)))
        CFI (cfiCond54) ?BRET_EXT load(1, XDATA, add(CFA_XSP16, literal(-3)))
        CFI (cfiCond54) DPL0 load(1, XDATA, add(CFA_XSP16, literal(-2)))
        CFI (cfiCond54) DPH0 load(1, XDATA, add(CFA_XSP16, literal(-1)))
        CFI (cfiCond54) CFA_SP SP+0
        CFI (cfiCond54) CFA_XSP16 add(XSP16, 13)
        CFI Block cfiPicker55 Using cfiCommon1
        CFI (cfiPicker55) NoFunction
        CFI (cfiPicker55) Picker
        ADD     A,#0x30
        MOV     DPL,?XSP + 0
        MOV     DPH,?XSP + 1
        RET
        CFI EndBlock cfiCond51
        CFI EndBlock cfiCond52
        CFI EndBlock cfiCond53
        CFI EndBlock cfiCond54
        CFI EndBlock cfiPicker55
//  767 

        RSEG BANKED_CODE:CODE:NOROOT(0)
//  768 void GenericApp_Send_rentihongwai_Message( void )//我加的，人体红外无线发送函数
GenericApp_Send_rentihongwai_Message:
        CFI Block cfiBlock56 Using cfiCommon0
        CFI Function GenericApp_Send_rentihongwai_Message
        CODE
//  769 {
        FUNCALL GenericApp_Send_rentihongwai_Message, AF_DataRequest
        LOCFRAME ISTACK, 0, STACK
        LOCFRAME PSTACK, 0, STACK
        LOCFRAME XSTACK, 21, STACK
        LOCFRAME IOVERLAY, 0, STATIC
        LOCFRAME DOVERLAY, 0, STATIC
        ARGFRAME ISTACK, 0, STACK
        ARGFRAME PSTACK, 0, STACK
        ARGFRAME XSTACK, 21, STACK
        ARGFRAME IOVERLAY, 0, STATIC
        ARGFRAME DOVERLAY, 0, STATIC
        MOV     A,#-0xa
        LCALL   ?BANKED_ENTER_XDATA
        CFI DPH0 load(1, XDATA, add(CFA_XSP16, literal(-1)))
        CFI DPL0 load(1, XDATA, add(CFA_XSP16, literal(-2)))
        CFI ?BRET_EXT load(1, XDATA, add(CFA_XSP16, literal(-3)))
        CFI ?RET_HIGH load(1, XDATA, add(CFA_XSP16, literal(-4)))
        CFI ?RET_LOW load(1, XDATA, add(CFA_XSP16, literal(-5)))
        CFI R7 load(1, XDATA, add(CFA_XSP16, literal(-6)))
        CFI V1 load(1, XDATA, add(CFA_XSP16, literal(-7)))
        CFI V0 load(1, XDATA, add(CFA_XSP16, literal(-8)))
        CFI VB load(1, XDATA, add(CFA_XSP16, literal(-9)))
        CFI R6 load(1, XDATA, add(CFA_XSP16, literal(-10)))
        CFI CFA_SP SP+0
        CFI CFA_XSP16 add(XSP16, 10)
        ; Saved register size: 10
        ; Auto size: 2
        MOV     A,#-0x2
        LCALL   ?ALLOC_XSTACK8
        CFI CFA_XSP16 add(XSP16, 12)
//  770   byte str[2];
//  771   if(P0_5 == 0)
        MOV     C,0x80.5
        MOV     DPL,?XSP + 0
        MOV     DPH,?XSP + 1
        JC      ??GenericApp_Send_rentihongwai_Message_0
//  772   {
//  773     str[0] = '0' ;
        MOV     A,#0x30
        SJMP    ??GenericApp_Send_rentihongwai_Message_1
//  774   }
//  775   else
//  776   {
//  777     str[0] = '1' ;
??GenericApp_Send_rentihongwai_Message_0:
        MOV     A,#0x31
//  778   }
??GenericApp_Send_rentihongwai_Message_1:
        LCALL   ?Subroutine4 & 0xFFFF
//  779   str[1] = sensorID;
??CrossCallReturnLabel_9:
        PUSH    A
        CFI CFA_SP SP+-1
        MOV     A,#0x1
        LCALL   ?XSTACK_DISP0_8
        POP     A
        CFI CFA_SP SP+0
        LCALL   ?Subroutine3 & 0xFFFF
//  780     
//  781   AF_DataRequest( &GenericApp_DstAddr, &GenericApp_epDesc,
//  782                        GenericApp_rentihongwai_CLUSTERID,
//  783                        2,
//  784                        str,
//  785                        &GenericApp_TransID,
//  786                        AF_DISCV_ROUTE,
//  787                        AF_DEFAULT_RADIUS ) ;
??CrossCallReturnLabel_4:
        LCALL   ?PUSH_XSTACK_I_ONE
        CFI CFA_XSP16 add(XSP16, 13)
        MOV     ?V0 + 0,#GenericApp_TransID & 0xff
        MOV     ?V0 + 1,#(GenericApp_TransID >> 8) & 0xff
        MOV     R0,#?V0 + 0
        LCALL   ?PUSH_XSTACK_I_TWO
        CFI CFA_XSP16 add(XSP16, 15)
        MOV     A,#0x3
        LCALL   ?XSTACK_DISP0_8
        MOV     ?V0 + 0,DPL
        MOV     ?V0 + 1,DPH
        MOV     R0,#?V0 + 0
        LCALL   ?PUSH_XSTACK_I_TWO
        CFI CFA_XSP16 add(XSP16, 17)
        MOV     ?V0 + 0,#0x2
        MOV     ?V0 + 1,#0x0
        MOV     R0,#?V0 + 0
        LCALL   ?PUSH_XSTACK_I_TWO
        CFI CFA_XSP16 add(XSP16, 19)
        MOV     ?V0 + 0,#0x6
        MOV     R0,#?V0 + 0
        LCALL   ?PUSH_XSTACK_I_TWO
        CFI CFA_XSP16 add(XSP16, 21)
        LCALL   ?Subroutine8 & 0xFFFF
??CrossCallReturnLabel_20:
        LCALL   ?DEALLOC_XSTACK8
        CFI CFA_XSP16 add(XSP16, 12)
//  788   
//  789 }
        MOV     A,#0x2
        LJMP    ??Subroutine11_0 & 0xFFFF
        CFI EndBlock cfiBlock56
        REQUIRE _A_P0

        RSEG XDATA_ID:CODE:NOROOT(0)
`?<Initializer for sensorID>`:
        DATA8
        DB 49

        RSEG BANK_RELAYS:CODE:REORDER:NOROOT(0)
??GenericApp_Init?relay:
        LCALL   ?BDISPATCH
        DATA
        DC24    GenericApp_Init

        RSEG BANK_RELAYS:CODE:REORDER:NOROOT(0)
??GenericApp_ProcessEvent?relay:
        LCALL   ?BDISPATCH
        DATA
        DC24    GenericApp_ProcessEvent

        RSEG BANK_RELAYS:CODE:REORDER:NOROOT(0)
??GenericApp_Send_Sensor_Message?relay:
        LCALL   ?BDISPATCH
        DATA
        DC24    GenericApp_Send_Sensor_Message

        RSEG BANK_RELAYS:CODE:REORDER:NOROOT(0)
??GenericApp_Send_wenshidu_Message?relay:
        LCALL   ?BDISPATCH
        DATA
        DC24    GenericApp_Send_wenshidu_Message

        RSEG BANK_RELAYS:CODE:REORDER:NOROOT(0)
??GenericApp_Send_Guangqiang_Message?relay:
        LCALL   ?BDISPATCH
        DATA
        DC24    GenericApp_Send_Guangqiang_Message

        RSEG BANK_RELAYS:CODE:REORDER:NOROOT(0)
??myApp_ReadLightLevel?relay:
        LCALL   ?BDISPATCH
        DATA
        DC24    myApp_ReadLightLevel

        RSEG BANK_RELAYS:CODE:REORDER:NOROOT(0)
??GenericApp_Send_GAN_Message?relay:
        LCALL   ?BDISPATCH
        DATA
        DC24    GenericApp_Send_GAN_Message

        RSEG BANK_RELAYS:CODE:REORDER:NOROOT(0)
??myApp_ReadGasLevel?relay:
        LCALL   ?BDISPATCH
        DATA
        DC24    myApp_ReadGasLevel

        RSEG BANK_RELAYS:CODE:REORDER:NOROOT(0)
??GenericApp_Send_wedu_Message?relay:
        LCALL   ?BDISPATCH
        DATA
        DC24    GenericApp_Send_wedu_Message

        RSEG BANK_RELAYS:CODE:REORDER:NOROOT(0)
??GenericApp_Send_rentihongwai_Message?relay:
        LCALL   ?BDISPATCH
        DATA
        DC24    GenericApp_Send_rentihongwai_Message

        RSEG XDATA_ROM_C:CONST:REORDER:NOROOT(0)
        DATA8
`?<Constant "GenericApp">`:
        DB "GenericApp"

        RSEG XDATA_ROM_C:CONST:REORDER:NOROOT(0)
        DATA16
`?<Constant "&">`:
        DB "&"

        END
//  790 
//  791 /*********************************************************************
//  792  * @fn      GenericApp_SendTheMessage
//  793  *
//  794  * @brief   Send "the" message.
//  795  *
//  796  * @param   none
//  797  *
//  798  * @return  none
//  799  */
//  800 static void GenericApp_SendTheMessage( void )
//  801 {
//  802   char theMessageData[] = "Hello World";
//  803 
//  804   if ( AF_DataRequest( &GenericApp_DstAddr, &GenericApp_epDesc,
//  805                        GENERICAPP_CLUSTERID,
//  806                        (byte)osal_strlen( theMessageData ) + 1,
//  807                        (byte *)&theMessageData,
//  808                        &GenericApp_TransID,
//  809                        AF_DISCV_ROUTE, AF_DEFAULT_RADIUS ) == afStatus_SUCCESS )
//  810   {
//  811     // Successfully requested to be sent.
//  812   }
//  813   else
//  814   {
//  815     // Error occurred in request to send.
//  816   }
//  817 }
//  818 
//  819 #if defined( IAR_ARMCM3_LM )
//  820 /*********************************************************************
//  821  * @fn      GenericApp_ProcessRtosMessage
//  822  *
//  823  * @brief   Receive message from RTOS queue, send response back.
//  824  *
//  825  * @param   none
//  826  *
//  827  * @return  none
//  828  */
//  829 static void GenericApp_ProcessRtosMessage( void )
//  830 {
//  831   osalQueue_t inMsg;
//  832 
//  833   if ( osal_queue_receive( OsalQueue, &inMsg, 0 ) == pdPASS )
//  834   {
//  835     uint8 cmndId = inMsg.cmnd;
//  836     uint32 counter = osal_build_uint32( inMsg.cbuf, 4 );
//  837 
//  838     switch ( cmndId )
//  839     {
//  840       case CMD_INCR:
//  841         counter += 1;  /* Increment the incoming counter */
//  842                        /* Intentionally fall through next case */
//  843 
//  844       case CMD_ECHO:
//  845       {
//  846         userQueue_t outMsg;
//  847 
//  848         outMsg.resp = RSP_CODE | cmndId;  /* Response ID */
//  849         osal_buffer_uint32( outMsg.rbuf, counter );    /* Increment counter */
//  850         osal_queue_send( UserQueue1, &outMsg, 0 );  /* Send back to UserTask */
//  851         break;
//  852       }
//  853       
//  854       default:
//  855         break;  /* Ignore unknown command */    
//  856     }
//  857   }
//  858 }
//  859 #endif
//  860 
//  861 /*********************************************************************
//  862  */
// 
// 1 794 bytes in segment BANKED_CODE
//    60 bytes in segment BANK_RELAYS
//     5 bytes in segment SFR_AN
//     1 byte  in segment XDATA_I
//     1 byte  in segment XDATA_ID
//    33 bytes in segment XDATA_ROM_C
//    21 bytes in segment XDATA_Z
// 
// 1 855 bytes of CODE  memory
//    33 bytes of CONST memory
//     0 bytes of DATA  memory (+ 5 bytes shared)
//    22 bytes of XDATA memory
//
//Errors: none
//Warnings: 1
